	.file	"main.adb"
	.text
.Ltext0:
	.file 0 "/workspaces/HISE_Assignment_3/obj/development/gnatprove/data_representation" "/workspaces/HISE_Assignment_3/src/main.adb"
	.section	.text.main__fc__to_big_real__B1185b___finalizer.28,"ax",@progbits
	.align 2
	.type	main__fc__to_big_real__B1185b___finalizer.28, @function
main__fc__to_big_real__B1185b___finalizer.28:
.LFB26:
	.cfi_startproc
	pushq	%rbx
	.cfi_def_cfa_offset 16
	.cfi_offset 3, -16
	movq	%r10, %rbx
	call	*system__soft_links__abort_defer(%rip)
	movq	%rbx, %rdi
	addq	$16, %rdi
	movq	ada__numerics__big_numbers__big_reals__big_realFD@GOTPCREL(%rip), %rsi
	call	system__finalization_primitives__finalize_object@PLT
	call	*system__soft_links__abort_undefer(%rip)
	popq	%rbx
	.cfi_def_cfa_offset 8
	ret
	.cfi_endproc
.LFE26:
	.size	main__fc__to_big_real__B1185b___finalizer.28, .-main__fc__to_big_real__B1185b___finalizer.28
	.section	.text.main__detect_bounces__B_2__B367b___finalizer.38,"ax",@progbits
	.align 2
	.type	main__detect_bounces__B_2__B367b___finalizer.38, @function
main__detect_bounces__B_2__B367b___finalizer.38:
.LFB96:
	.cfi_startproc
	pushq	%rbp
	.cfi_def_cfa_offset 16
	.cfi_offset 6, -16
	pushq	%rbx
	.cfi_def_cfa_offset 24
	.cfi_offset 3, -24
	subq	$8, %rsp
	.cfi_def_cfa_offset 32
	movq	%r10, %rbx
	call	*system__soft_links__abort_defer(%rip)
	movq	ada__numerics__big_numbers__big_reals__big_realFD@GOTPCREL(%rip), %rbp
	leaq	184(%rbx), %rdi
	movq	%rbp, %rsi
	call	system__finalization_primitives__finalize_object@PLT
	leaq	160(%rbx), %rdi
	movq	%rbp, %rsi
	call	system__finalization_primitives__finalize_object@PLT
	leaq	136(%rbx), %rdi
	movq	%rbp, %rsi
	call	system__finalization_primitives__finalize_object@PLT
	leaq	112(%rbx), %rdi
	movq	%rbp, %rsi
	call	system__finalization_primitives__finalize_object@PLT
	call	*system__soft_links__abort_undefer(%rip)
	addq	$8, %rsp
	.cfi_def_cfa_offset 24
	popq	%rbx
	.cfi_def_cfa_offset 16
	popq	%rbp
	.cfi_def_cfa_offset 8
	ret
	.cfi_endproc
.LFE96:
	.size	main__detect_bounces__B_2__B367b___finalizer.38, .-main__detect_bounces__B_2__B367b___finalizer.38
	.section	.text.main__detect_bounces__B_2__B400b___finalizer.39,"ax",@progbits
	.align 2
	.type	main__detect_bounces__B_2__B400b___finalizer.39, @function
main__detect_bounces__B_2__B400b___finalizer.39:
.LFB97:
	.cfi_startproc
	pushq	%rbp
	.cfi_def_cfa_offset 16
	.cfi_offset 6, -16
	pushq	%rbx
	.cfi_def_cfa_offset 24
	.cfi_offset 3, -24
	subq	$8, %rsp
	.cfi_def_cfa_offset 32
	movq	%r10, %rbx
	call	*system__soft_links__abort_defer(%rip)
	movq	ada__numerics__big_numbers__big_reals__big_realFD@GOTPCREL(%rip), %rbp
	leaq	88(%rbx), %rdi
	movq	%rbp, %rsi
	call	system__finalization_primitives__finalize_object@PLT
	leaq	64(%rbx), %rdi
	movq	%rbp, %rsi
	call	system__finalization_primitives__finalize_object@PLT
	leaq	40(%rbx), %rdi
	movq	%rbp, %rsi
	call	system__finalization_primitives__finalize_object@PLT
	leaq	16(%rbx), %rdi
	movq	%rbp, %rsi
	call	system__finalization_primitives__finalize_object@PLT
	call	*system__soft_links__abort_undefer(%rip)
	addq	$8, %rsp
	.cfi_def_cfa_offset 24
	popq	%rbx
	.cfi_def_cfa_offset 16
	popq	%rbp
	.cfi_def_cfa_offset 8
	ret
	.cfi_endproc
.LFE97:
	.size	main__detect_bounces__B_2__B400b___finalizer.39, .-main__detect_bounces__B_2__B400b___finalizer.39
	.section	.text.main__Tinitial_positionsBSA.48,"ax",@progbits
	.align 2
	.type	main__Tinitial_positionsBSA.48, @function
main__Tinitial_positionsBSA.48:
.LFB82:
	.cfi_startproc
	.cfi_personality 0x9b,DW.ref.__gnat_personality_v0
	.cfi_lsda 0x1b,.LLSDA82
	pushq	%r15
	.cfi_def_cfa_offset 16
	.cfi_offset 15, -16
	pushq	%r14
	.cfi_def_cfa_offset 24
	.cfi_offset 14, -24
	pushq	%r13
	.cfi_def_cfa_offset 32
	.cfi_offset 13, -32
	pushq	%r12
	.cfi_def_cfa_offset 40
	.cfi_offset 12, -40
	pushq	%rbp
	.cfi_def_cfa_offset 48
	.cfi_offset 6, -48
	pushq	%rbx
	.cfi_def_cfa_offset 56
	.cfi_offset 3, -56
.LEHB0:
	subq	$712, %rsp
	.cfi_def_cfa_offset 768
.LEHE0:
	movq	%rdi, %r14
	movq	%rsi, 24(%rsp)
	movq	%rcx, 40(%rsp)
	movl	%r8d, 56(%rsp)
	movl	%r9d, 60(%rsp)
	movl	768(%rsp), %r13d
	movl	784(%rsp), %eax
	movb	%al, 39(%rsp)
	movslq	(%rcx), %rdi
	movq	%rdi, 48(%rsp)
	movslq	(%rsi), %rdi
	movq	%rdi, 16(%rsp)
	cmpl	%r8d, %r9d
	jl	.L7
	movq	%rdx, %r15
	testb	%al, %al
	je	.L18
	movl	776(%rsp), %r13d
	movl	%r9d, %r12d
	jmp	.L10
.L18:
	movl	56(%rsp), %r12d
	jmp	.L10
.L23:
	movslq	%r12d, %rbx
	movslq	%r13d, %rbp
	movq	24(%rsp), %rax
	movslq	(%rax), %rax
	movq	%rbx, %rdx
	subq	%rax, %rdx
	salq	$6, %rdx
	addq	%r14, %rdx
	movq	40(%rsp), %rax
	movslq	(%rax), %rcx
	movq	%rbp, %rax
	subq	%rcx, %rax
	salq	$6, %rax
	addq	%r15, %rax
	cmpq	%rax, %rdx
	je	.L11
	movq	%rbx, %rax
	movq	16(%rsp), %rsi
	subq	%rsi, %rax
	salq	$6, %rax
	addq	%r14, %rax
	movl	$1, %esi
	movq	%rax, 8(%rsp)
	movq	%rax, %rdi
.LEHB1:
	call	spatial__positionDF@PLT
	movq	16(%rsp), %rsi
	subq	%rsi, %rbx
	salq	$6, %rbx
	addq	%r14, %rbx
	movq	48(%rsp), %rcx
	subq	%rcx, %rbp
	salq	$6, %rbp
	addq	%r15, %rbp
	movq	0(%rbp), %rax
	movq	8(%rbp), %rdx
	movq	%rax, (%rbx)
	movq	%rdx, 8(%rbx)
	movq	16(%rbp), %rax
	movq	24(%rbp), %rdx
	movq	%rax, 16(%rbx)
	movq	%rdx, 24(%rbx)
	movq	32(%rbp), %rax
	movq	40(%rbp), %rdx
	movq	%rax, 32(%rbx)
	movq	%rdx, 40(%rbx)
	movq	48(%rbp), %rax
	movq	56(%rbp), %rdx
	movq	%rax, 48(%rbx)
	movq	%rdx, 56(%rbx)
	movl	$1, %esi
	movq	8(%rsp), %rdi
	call	spatial__positionDA@PLT
.LEHE1:
.L11:
.LEHB2:
	call	system__standard_library__abort_undefer_direct@PLT
.LEHE2:
	cmpb	$0, 39(%rsp)
	je	.L12
	movl	56(%rsp), %eax
	cmpl	%eax, %r12d
	je	.L7
	subl	$1, %r12d
	subl	$1, %r13d
.L10:
.LEHB3:
	call	*system__soft_links__abort_defer(%rip)
.LEHE3:
	jmp	.L23
.L12:
	movl	60(%rsp), %eax
	cmpl	%eax, %r12d
	je	.L7
	addl	$1, %r12d
	addl	$1, %r13d
	jmp	.L10
.L20:
	movq	%rax, %rbp
	cmpq	$1, %rdx
	je	.L15
	movq	%rax, %rbx
.L16:
.LEHB4:
	call	system__standard_library__abort_undefer_direct@PLT
	movq	%rbx, %rdi
	call	_Unwind_Resume@PLT
.LEHE4:
.L15:
	movq	%rax, %rdi
	call	__gnat_begin_handler_v1@PLT
	movq	%rax, %r12
	leaq	64(%rsp), %rdi
	movq	%rbp, %rsi
.LEHB5:
	call	__gnat_set_exception_parameter@PLT
	leaq	64(%rsp), %rdi
	call	__gnat_raise_from_controlled_operation@PLT
.LEHE5:
.L21:
	movq	%rax, %rbx
	movq	%rax, %rdx
	movq	%r12, %rsi
	movq	%rbp, %rdi
.LEHB6:
	call	__gnat_end_handler_v1@PLT
.LEHE6:
	jmp	.L16
.L19:
	movq	%rax, %rbx
	jmp	.L16
.L7:
.LEHB7:
	addq	$712, %rsp
	.cfi_def_cfa_offset 56
.LEHE7:
	popq	%rbx
	.cfi_def_cfa_offset 48
	popq	%rbp
	.cfi_def_cfa_offset 40
	popq	%r12
	.cfi_def_cfa_offset 32
	popq	%r13
	.cfi_def_cfa_offset 24
	popq	%r14
	.cfi_def_cfa_offset 16
	popq	%r15
	.cfi_def_cfa_offset 8
	ret
	.cfi_endproc
.LFE82:
	.section	.gcc_except_table.main__Tinitial_positionsBSA.48,"a",@progbits
	.align 4
.LLSDA82:
	.byte	0xff
	.byte	0x9b
	.uleb128 .LLSDATT82-.LLSDATTD82
.LLSDATTD82:
	.byte	0x1
	.uleb128 .LLSDACSE82-.LLSDACSB82
.LLSDACSB82:
	.uleb128 .LEHB0-.LFB82
	.uleb128 .LEHE0-.LEHB0
	.uleb128 0
	.uleb128 0
	.uleb128 .LEHB1-.LFB82
	.uleb128 .LEHE1-.LEHB1
	.uleb128 .L20-.LFB82
	.uleb128 0x3
	.uleb128 .LEHB2-.LFB82
	.uleb128 .LEHE2-.LEHB2
	.uleb128 0
	.uleb128 0
	.uleb128 .LEHB3-.LFB82
	.uleb128 .LEHE3-.LEHB3
	.uleb128 .L19-.LFB82
	.uleb128 0
	.uleb128 .LEHB4-.LFB82
	.uleb128 .LEHE4-.LEHB4
	.uleb128 0
	.uleb128 0
	.uleb128 .LEHB5-.LFB82
	.uleb128 .LEHE5-.LEHB5
	.uleb128 .L21-.LFB82
	.uleb128 0
	.uleb128 .LEHB6-.LFB82
	.uleb128 .LEHE6-.LEHB6
	.uleb128 .L19-.LFB82
	.uleb128 0
	.uleb128 .LEHB7-.LFB82
	.uleb128 .LEHE7-.LEHB7
	.uleb128 0
	.uleb128 0
.LLSDACSE82:
	.byte	0
	.byte	0
	.byte	0x1
	.byte	0x7d
	.align 4
	.long	DW.ref.__gnat_others_value-.
.LLSDATT82:
	.section	.text.main__Tinitial_positionsBSA.48
	.size	main__Tinitial_positionsBSA.48, .-main__Tinitial_positionsBSA.48
	.section	.text.main__Tinitial_velocitiesBSA.50,"ax",@progbits
	.align 2
	.type	main__Tinitial_velocitiesBSA.50, @function
main__Tinitial_velocitiesBSA.50:
.LFB87:
	.cfi_startproc
	.cfi_personality 0x9b,DW.ref.__gnat_personality_v0
	.cfi_lsda 0x1b,.LLSDA87
	pushq	%r15
	.cfi_def_cfa_offset 16
	.cfi_offset 15, -16
	pushq	%r14
	.cfi_def_cfa_offset 24
	.cfi_offset 14, -24
	pushq	%r13
	.cfi_def_cfa_offset 32
	.cfi_offset 13, -32
	pushq	%r12
	.cfi_def_cfa_offset 40
	.cfi_offset 12, -40
	pushq	%rbp
	.cfi_def_cfa_offset 48
	.cfi_offset 6, -48
	pushq	%rbx
	.cfi_def_cfa_offset 56
	.cfi_offset 3, -56
.LEHB8:
	subq	$712, %rsp
	.cfi_def_cfa_offset 768
.LEHE8:
	movq	%rdi, %r14
	movq	%rsi, 24(%rsp)
	movq	%rcx, 40(%rsp)
	movl	%r8d, 56(%rsp)
	movl	%r9d, 60(%rsp)
	movl	768(%rsp), %r13d
	movl	784(%rsp), %eax
	movb	%al, 39(%rsp)
	movslq	(%rcx), %rdi
	movq	%rdi, 48(%rsp)
	movslq	(%rsi), %rdi
	movq	%rdi, 16(%rsp)
	cmpl	%r8d, %r9d
	jl	.L24
	movq	%rdx, %r15
	testb	%al, %al
	je	.L35
	movl	776(%rsp), %r13d
	movl	%r9d, %r12d
	jmp	.L27
.L35:
	movl	56(%rsp), %r12d
	jmp	.L27
.L40:
	movslq	%r12d, %rbx
	movslq	%r13d, %rbp
	movq	24(%rsp), %rax
	movslq	(%rax), %rax
	movq	%rbx, %rdx
	subq	%rax, %rdx
	salq	$6, %rdx
	addq	%r14, %rdx
	movq	40(%rsp), %rax
	movslq	(%rax), %rcx
	movq	%rbp, %rax
	subq	%rcx, %rax
	salq	$6, %rax
	addq	%r15, %rax
	cmpq	%rax, %rdx
	je	.L28
	movq	%rbx, %rax
	movq	16(%rsp), %rsi
	subq	%rsi, %rax
	salq	$6, %rax
	addq	%r14, %rax
	movl	$1, %esi
	movq	%rax, 8(%rsp)
	movq	%rax, %rdi
.LEHB9:
	call	spatial__velocityDF@PLT
	movq	16(%rsp), %rsi
	subq	%rsi, %rbx
	salq	$6, %rbx
	addq	%r14, %rbx
	movq	48(%rsp), %rcx
	subq	%rcx, %rbp
	salq	$6, %rbp
	addq	%r15, %rbp
	movq	0(%rbp), %rax
	movq	8(%rbp), %rdx
	movq	%rax, (%rbx)
	movq	%rdx, 8(%rbx)
	movq	16(%rbp), %rax
	movq	24(%rbp), %rdx
	movq	%rax, 16(%rbx)
	movq	%rdx, 24(%rbx)
	movq	32(%rbp), %rax
	movq	40(%rbp), %rdx
	movq	%rax, 32(%rbx)
	movq	%rdx, 40(%rbx)
	movq	48(%rbp), %rax
	movq	56(%rbp), %rdx
	movq	%rax, 48(%rbx)
	movq	%rdx, 56(%rbx)
	movl	$1, %esi
	movq	8(%rsp), %rdi
	call	spatial__velocityDA@PLT
.LEHE9:
.L28:
.LEHB10:
	call	system__standard_library__abort_undefer_direct@PLT
.LEHE10:
	cmpb	$0, 39(%rsp)
	je	.L29
	movl	56(%rsp), %eax
	cmpl	%eax, %r12d
	je	.L24
	subl	$1, %r12d
	subl	$1, %r13d
.L27:
.LEHB11:
	call	*system__soft_links__abort_defer(%rip)
.LEHE11:
	jmp	.L40
.L29:
	movl	60(%rsp), %eax
	cmpl	%eax, %r12d
	je	.L24
	addl	$1, %r12d
	addl	$1, %r13d
	jmp	.L27
.L37:
	movq	%rax, %rbp
	cmpq	$1, %rdx
	je	.L32
	movq	%rax, %rbx
.L33:
.LEHB12:
	call	system__standard_library__abort_undefer_direct@PLT
	movq	%rbx, %rdi
	call	_Unwind_Resume@PLT
.LEHE12:
.L32:
	movq	%rax, %rdi
	call	__gnat_begin_handler_v1@PLT
	movq	%rax, %r12
	leaq	64(%rsp), %rdi
	movq	%rbp, %rsi
.LEHB13:
	call	__gnat_set_exception_parameter@PLT
	leaq	64(%rsp), %rdi
	call	__gnat_raise_from_controlled_operation@PLT
.LEHE13:
.L38:
	movq	%rax, %rbx
	movq	%rax, %rdx
	movq	%r12, %rsi
	movq	%rbp, %rdi
.LEHB14:
	call	__gnat_end_handler_v1@PLT
.LEHE14:
	jmp	.L33
.L36:
	movq	%rax, %rbx
	jmp	.L33
.L24:
.LEHB15:
	addq	$712, %rsp
	.cfi_def_cfa_offset 56
.LEHE15:
	popq	%rbx
	.cfi_def_cfa_offset 48
	popq	%rbp
	.cfi_def_cfa_offset 40
	popq	%r12
	.cfi_def_cfa_offset 32
	popq	%r13
	.cfi_def_cfa_offset 24
	popq	%r14
	.cfi_def_cfa_offset 16
	popq	%r15
	.cfi_def_cfa_offset 8
	ret
	.cfi_endproc
.LFE87:
	.section	.gcc_except_table.main__Tinitial_velocitiesBSA.50,"a",@progbits
	.align 4
.LLSDA87:
	.byte	0xff
	.byte	0x9b
	.uleb128 .LLSDATT87-.LLSDATTD87
.LLSDATTD87:
	.byte	0x1
	.uleb128 .LLSDACSE87-.LLSDACSB87
.LLSDACSB87:
	.uleb128 .LEHB8-.LFB87
	.uleb128 .LEHE8-.LEHB8
	.uleb128 0
	.uleb128 0
	.uleb128 .LEHB9-.LFB87
	.uleb128 .LEHE9-.LEHB9
	.uleb128 .L37-.LFB87
	.uleb128 0x3
	.uleb128 .LEHB10-.LFB87
	.uleb128 .LEHE10-.LEHB10
	.uleb128 0
	.uleb128 0
	.uleb128 .LEHB11-.LFB87
	.uleb128 .LEHE11-.LEHB11
	.uleb128 .L36-.LFB87
	.uleb128 0
	.uleb128 .LEHB12-.LFB87
	.uleb128 .LEHE12-.LEHB12
	.uleb128 0
	.uleb128 0
	.uleb128 .LEHB13-.LFB87
	.uleb128 .LEHE13-.LEHB13
	.uleb128 .L38-.LFB87
	.uleb128 0
	.uleb128 .LEHB14-.LFB87
	.uleb128 .LEHE14-.LEHB14
	.uleb128 .L36-.LFB87
	.uleb128 0
	.uleb128 .LEHB15-.LFB87
	.uleb128 .LEHE15-.LEHB15
	.uleb128 0
	.uleb128 0
.LLSDACSE87:
	.byte	0
	.byte	0
	.byte	0x1
	.byte	0x7d
	.align 4
	.long	DW.ref.__gnat_others_value-.
.LLSDATT87:
	.section	.text.main__Tinitial_velocitiesBSA.50
	.size	main__Tinitial_velocitiesBSA.50, .-main__Tinitial_velocitiesBSA.50
	.section	.rodata
.LC65:
	.ascii	"main.adb"
	.zero	1
	.section	.text.main__Tinitial_radiiBDF.1,"ax",@progbits
	.align 2
	.type	main__Tinitial_radiiBDF.1, @function
main__Tinitial_radiiBDF.1:
.LFB90:
	.cfi_startproc
	.cfi_personality 0x9b,DW.ref.__gnat_personality_v0
	.cfi_lsda 0x1b,.LLSDA90
	pushq	%r15
	.cfi_def_cfa_offset 16
	.cfi_offset 15, -16
	pushq	%r14
	.cfi_def_cfa_offset 24
	.cfi_offset 14, -24
	pushq	%r13
	.cfi_def_cfa_offset 32
	.cfi_offset 13, -32
	pushq	%r12
	.cfi_def_cfa_offset 40
	.cfi_offset 12, -40
	pushq	%rbp
	.cfi_def_cfa_offset 48
	.cfi_offset 6, -48
	pushq	%rbx
	.cfi_def_cfa_offset 56
	.cfi_offset 3, -56
.LEHB16:
	subq	$8, %rsp
	.cfi_def_cfa_offset 64
	movq	%rdi, %r12
	movq	%rsi, %rbp
	movslq	(%rsi), %r13
	call	ada__exceptions__triggered_by_abort@PLT
	movl	%eax, %r15d
	movl	4(%rbp), %ebx
	movl	$0, %r14d
	jmp	.L43
.L42:
	movl	%r15d, %eax
	xorl	$1, %eax
	testb	%al, %r14b
	jne	.L50
	addq	$8, %rsp
	.cfi_remember_state
	.cfi_def_cfa_offset 56
	popq	%rbx
	.cfi_def_cfa_offset 48
	popq	%rbp
	.cfi_def_cfa_offset 40
	popq	%r12
	.cfi_def_cfa_offset 32
	popq	%r13
	.cfi_def_cfa_offset 24
	popq	%r14
	.cfi_def_cfa_offset 16
	popq	%r15
	.cfi_def_cfa_offset 8
	ret
.L50:
	.cfi_restore_state
	movl	$61, %esi
	leaq	.LC65(%rip), %rdi
	call	__gnat_rcheck_PE_Finalize_Raised_Exception@PLT
.L48:
	movq	%rax, %rdi
	cmpq	$1, %rdx
	je	.L46
	call	_Unwind_Resume@PLT
.L46:
	movq	%rax, %r14
	call	__gnat_begin_handler_v1@PLT
	movq	%rax, %rsi
	movl	$0, %edx
	movq	%r14, %rdi
	call	__gnat_end_handler_v1@PLT
.LEHE16:
	movl	$1, %r14d
.L47:
	subl	$1, %ebx
.L43:
	cmpl	%ebx, 0(%rbp)
	jg	.L42
	movslq	%ebx, %rdi
	subq	%r13, %rdi
	salq	$5, %rdi
	addq	%r12, %rdi
	movl	$1, %esi
.LEHB17:
	call	ada__numerics__big_numbers__big_reals__big_realDF@PLT
.LEHE17:
	jmp	.L47
	.cfi_endproc
.LFE90:
	.section	.gcc_except_table.main__Tinitial_radiiBDF.1,"a",@progbits
	.align 4
.LLSDA90:
	.byte	0xff
	.byte	0x9b
	.uleb128 .LLSDATT90-.LLSDATTD90
.LLSDATTD90:
	.byte	0x1
	.uleb128 .LLSDACSE90-.LLSDACSB90
.LLSDACSB90:
	.uleb128 .LEHB16-.LFB90
	.uleb128 .LEHE16-.LEHB16
	.uleb128 0
	.uleb128 0
	.uleb128 .LEHB17-.LFB90
	.uleb128 .LEHE17-.LEHB17
	.uleb128 .L48-.LFB90
	.uleb128 0x1
.LLSDACSE90:
	.byte	0x1
	.byte	0
	.align 4
	.long	DW.ref.__gnat_others_value-.
.LLSDATT90:
	.section	.text.main__Tinitial_radiiBDF.1
	.size	main__Tinitial_radiiBDF.1, .-main__Tinitial_radiiBDF.1
	.section	.text.main__Tinitial_radiiBFD.0,"ax",@progbits
	.align 2
	.type	main__Tinitial_radiiBFD.0, @function
main__Tinitial_radiiBFD.0:
.LFB91:
	.cfi_startproc
	subq	$8, %rsp
	.cfi_def_cfa_offset 16
	leaq	8(%rdi), %rax
	movq	%rdi, %rdx
	movq	%rax, %rdi
	movq	%rdx, %rsi
	movl	$1, %edx
	call	main__Tinitial_radiiBDF.1
	addq	$8, %rsp
	.cfi_def_cfa_offset 8
	ret
	.cfi_endproc
.LFE91:
	.size	main__Tinitial_radiiBFD.0, .-main__Tinitial_radiiBFD.0
	.section	.text.main__Tinitial_velocitiesBDF.3,"ax",@progbits
	.align 2
	.type	main__Tinitial_velocitiesBDF.3, @function
main__Tinitial_velocitiesBDF.3:
.LFB85:
	.cfi_startproc
	.cfi_personality 0x9b,DW.ref.__gnat_personality_v0
	.cfi_lsda 0x1b,.LLSDA85
	pushq	%r15
	.cfi_def_cfa_offset 16
	.cfi_offset 15, -16
	pushq	%r14
	.cfi_def_cfa_offset 24
	.cfi_offset 14, -24
	pushq	%r13
	.cfi_def_cfa_offset 32
	.cfi_offset 13, -32
	pushq	%r12
	.cfi_def_cfa_offset 40
	.cfi_offset 12, -40
	pushq	%rbp
	.cfi_def_cfa_offset 48
	.cfi_offset 6, -48
	pushq	%rbx
	.cfi_def_cfa_offset 56
	.cfi_offset 3, -56
.LEHB18:
	subq	$8, %rsp
	.cfi_def_cfa_offset 64
	movq	%rdi, %r12
	movq	%rsi, %rbp
	movslq	(%rsi), %r13
	call	ada__exceptions__triggered_by_abort@PLT
	movl	%eax, %r15d
	movl	4(%rbp), %ebx
	movl	$0, %r14d
	jmp	.L55
.L54:
	movl	%r15d, %eax
	xorl	$1, %eax
	testb	%al, %r14b
	jne	.L62
	addq	$8, %rsp
	.cfi_remember_state
	.cfi_def_cfa_offset 56
	popq	%rbx
	.cfi_def_cfa_offset 48
	popq	%rbp
	.cfi_def_cfa_offset 40
	popq	%r12
	.cfi_def_cfa_offset 32
	popq	%r13
	.cfi_def_cfa_offset 24
	popq	%r14
	.cfi_def_cfa_offset 16
	popq	%r15
	.cfi_def_cfa_offset 8
	ret
.L62:
	.cfi_restore_state
	movl	$55, %esi
	leaq	.LC65(%rip), %rdi
	call	__gnat_rcheck_PE_Finalize_Raised_Exception@PLT
.L60:
	movq	%rax, %rdi
	cmpq	$1, %rdx
	je	.L58
	call	_Unwind_Resume@PLT
.L58:
	movq	%rax, %r14
	call	__gnat_begin_handler_v1@PLT
	movq	%rax, %rsi
	movl	$0, %edx
	movq	%r14, %rdi
	call	__gnat_end_handler_v1@PLT
.LEHE18:
	movl	$1, %r14d
.L59:
	subl	$1, %ebx
.L55:
	cmpl	%ebx, 0(%rbp)
	jg	.L54
	movslq	%ebx, %rdi
	subq	%r13, %rdi
	salq	$6, %rdi
	addq	%r12, %rdi
	movl	$1, %esi
.LEHB19:
	call	spatial__velocityDF@PLT
.LEHE19:
	jmp	.L59
	.cfi_endproc
.LFE85:
	.section	.gcc_except_table.main__Tinitial_velocitiesBDF.3,"a",@progbits
	.align 4
.LLSDA85:
	.byte	0xff
	.byte	0x9b
	.uleb128 .LLSDATT85-.LLSDATTD85
.LLSDATTD85:
	.byte	0x1
	.uleb128 .LLSDACSE85-.LLSDACSB85
.LLSDACSB85:
	.uleb128 .LEHB18-.LFB85
	.uleb128 .LEHE18-.LEHB18
	.uleb128 0
	.uleb128 0
	.uleb128 .LEHB19-.LFB85
	.uleb128 .LEHE19-.LEHB19
	.uleb128 .L60-.LFB85
	.uleb128 0x1
.LLSDACSE85:
	.byte	0x1
	.byte	0
	.align 4
	.long	DW.ref.__gnat_others_value-.
.LLSDATT85:
	.section	.text.main__Tinitial_velocitiesBDF.3
	.size	main__Tinitial_velocitiesBDF.3, .-main__Tinitial_velocitiesBDF.3
	.section	.text.main__Tinitial_velocitiesBFD.2,"ax",@progbits
	.align 2
	.type	main__Tinitial_velocitiesBFD.2, @function
main__Tinitial_velocitiesBFD.2:
.LFB86:
	.cfi_startproc
	subq	$8, %rsp
	.cfi_def_cfa_offset 16
	leaq	8(%rdi), %rax
	movq	%rdi, %rdx
	movq	%rax, %rdi
	movq	%rdx, %rsi
	movl	$1, %edx
	call	main__Tinitial_velocitiesBDF.3
	addq	$8, %rsp
	.cfi_def_cfa_offset 8
	ret
	.cfi_endproc
.LFE86:
	.size	main__Tinitial_velocitiesBFD.2, .-main__Tinitial_velocitiesBFD.2
	.section	.text.main__Tinitial_positionsBDF.5,"ax",@progbits
	.align 2
	.type	main__Tinitial_positionsBDF.5, @function
main__Tinitial_positionsBDF.5:
.LFB80:
	.cfi_startproc
	.cfi_personality 0x9b,DW.ref.__gnat_personality_v0
	.cfi_lsda 0x1b,.LLSDA80
	pushq	%r15
	.cfi_def_cfa_offset 16
	.cfi_offset 15, -16
	pushq	%r14
	.cfi_def_cfa_offset 24
	.cfi_offset 14, -24
	pushq	%r13
	.cfi_def_cfa_offset 32
	.cfi_offset 13, -32
	pushq	%r12
	.cfi_def_cfa_offset 40
	.cfi_offset 12, -40
	pushq	%rbp
	.cfi_def_cfa_offset 48
	.cfi_offset 6, -48
	pushq	%rbx
	.cfi_def_cfa_offset 56
	.cfi_offset 3, -56
.LEHB20:
	subq	$8, %rsp
	.cfi_def_cfa_offset 64
	movq	%rdi, %r12
	movq	%rsi, %rbp
	movslq	(%rsi), %r13
	call	ada__exceptions__triggered_by_abort@PLT
	movl	%eax, %r15d
	movl	4(%rbp), %ebx
	movl	$0, %r14d
	jmp	.L67
.L66:
	movl	%r15d, %eax
	xorl	$1, %eax
	testb	%al, %r14b
	jne	.L74
	addq	$8, %rsp
	.cfi_remember_state
	.cfi_def_cfa_offset 56
	popq	%rbx
	.cfi_def_cfa_offset 48
	popq	%rbp
	.cfi_def_cfa_offset 40
	popq	%r12
	.cfi_def_cfa_offset 32
	popq	%r13
	.cfi_def_cfa_offset 24
	popq	%r14
	.cfi_def_cfa_offset 16
	popq	%r15
	.cfi_def_cfa_offset 8
	ret
.L74:
	.cfi_restore_state
	movl	$49, %esi
	leaq	.LC65(%rip), %rdi
	call	__gnat_rcheck_PE_Finalize_Raised_Exception@PLT
.L72:
	movq	%rax, %rdi
	cmpq	$1, %rdx
	je	.L70
	call	_Unwind_Resume@PLT
.L70:
	movq	%rax, %r14
	call	__gnat_begin_handler_v1@PLT
	movq	%rax, %rsi
	movl	$0, %edx
	movq	%r14, %rdi
	call	__gnat_end_handler_v1@PLT
.LEHE20:
	movl	$1, %r14d
.L71:
	subl	$1, %ebx
.L67:
	cmpl	%ebx, 0(%rbp)
	jg	.L66
	movslq	%ebx, %rdi
	subq	%r13, %rdi
	salq	$6, %rdi
	addq	%r12, %rdi
	movl	$1, %esi
.LEHB21:
	call	spatial__positionDF@PLT
.LEHE21:
	jmp	.L71
	.cfi_endproc
.LFE80:
	.section	.gcc_except_table.main__Tinitial_positionsBDF.5,"a",@progbits
	.align 4
.LLSDA80:
	.byte	0xff
	.byte	0x9b
	.uleb128 .LLSDATT80-.LLSDATTD80
.LLSDATTD80:
	.byte	0x1
	.uleb128 .LLSDACSE80-.LLSDACSB80
.LLSDACSB80:
	.uleb128 .LEHB20-.LFB80
	.uleb128 .LEHE20-.LEHB20
	.uleb128 0
	.uleb128 0
	.uleb128 .LEHB21-.LFB80
	.uleb128 .LEHE21-.LEHB21
	.uleb128 .L72-.LFB80
	.uleb128 0x1
.LLSDACSE80:
	.byte	0x1
	.byte	0
	.align 4
	.long	DW.ref.__gnat_others_value-.
.LLSDATT80:
	.section	.text.main__Tinitial_positionsBDF.5
	.size	main__Tinitial_positionsBDF.5, .-main__Tinitial_positionsBDF.5
	.section	.text.main__Tinitial_positionsBFD.4,"ax",@progbits
	.align 2
	.type	main__Tinitial_positionsBFD.4, @function
main__Tinitial_positionsBFD.4:
.LFB81:
	.cfi_startproc
	subq	$8, %rsp
	.cfi_def_cfa_offset 16
	leaq	8(%rdi), %rax
	movq	%rdi, %rdx
	movq	%rax, %rdi
	movq	%rdx, %rsi
	movl	$1, %edx
	call	main__Tinitial_positionsBDF.5
	addq	$8, %rsp
	.cfi_def_cfa_offset 8
	ret
	.cfi_endproc
.LFE81:
	.size	main__Tinitial_positionsBFD.4, .-main__Tinitial_positionsBFD.4
	.section	.rodata
.LC66:
	.ascii	"universe.ads"
	.zero	1
	.section	.text.main__univ__universe_itemIP___finalizer.12,"ax",@progbits
	.align 2
	.type	main__univ__universe_itemIP___finalizer.12, @function
main__univ__universe_itemIP___finalizer.12:
.LFB61:
	.cfi_startproc
	.cfi_personality 0x9b,DW.ref.__gnat_personality_v0
	.cfi_lsda 0x1b,.LLSDA61
	pushq	%r12
	.cfi_def_cfa_offset 16
	.cfi_offset 12, -16
	pushq	%rbp
	.cfi_def_cfa_offset 24
	.cfi_offset 6, -24
	pushq	%rbx
	.cfi_def_cfa_offset 32
	.cfi_offset 3, -32
	movq	%rdi, %r12
	movq	%r10, %rbx
.LEHB22:
	call	ada__exceptions__triggered_by_abort@PLT
	movl	%eax, %ebp
	movl	(%rbx), %eax
	cmpl	$2, %eax
	je	.L89
	cmpl	$3, %eax
	je	.L79
	cmpl	$1, %eax
	je	.L90
	movb	$0, %bl
.L81:
	xorl	$1, %ebp
	testb	%bl, %bpl
	je	.L77
	movl	$98, %esi
	leaq	.LC66(%rip), %rdi
	call	__gnat_rcheck_PE_Finalize_Raised_Exception@PLT
.LEHE22:
.L79:
	leaq	128(%r12), %rdi
	movl	$1, %esi
.LEHB23:
	call	ada__numerics__big_numbers__big_reals__big_realDF@PLT
.LEHE23:
	movb	$0, %bl
.L78:
	leaq	64(%r12), %rdi
	movl	$1, %esi
.LEHB24:
	call	spatial__velocityDF@PLT
.LEHE24:
	jmp	.L80
.L89:
	movb	$0, %bl
	jmp	.L78
.L90:
	movb	$0, %bl
.L80:
	movl	$1, %esi
	movq	%r12, %rdi
.LEHB25:
	call	spatial__positionDF@PLT
.LEHE25:
	jmp	.L81
.L91:
	movq	%rax, %rbx
	cmpq	$1, %rdx
	je	.L84
	movq	%rax, %rdi
.LEHB26:
	call	_Unwind_Resume@PLT
.L84:
	movq	%rax, %rdi
	call	__gnat_begin_handler_v1@PLT
	movq	%rax, %rsi
	movl	$0, %edx
	movq	%rbx, %rdi
	call	__gnat_end_handler_v1@PLT
	movb	$1, %bl
	jmp	.L78
.L92:
	movq	%rax, %rbx
	cmpq	$2, %rdx
	je	.L86
	movq	%rax, %rdi
	call	_Unwind_Resume@PLT
.L86:
	movq	%rax, %rdi
	call	__gnat_begin_handler_v1@PLT
	movq	%rax, %rsi
	movl	$0, %edx
	movq	%rbx, %rdi
	call	__gnat_end_handler_v1@PLT
	movb	$1, %bl
	jmp	.L80
.L93:
	movq	%rax, %rbx
	cmpq	$3, %rdx
	je	.L88
	movq	%rax, %rdi
	call	_Unwind_Resume@PLT
.L88:
	movq	%rax, %rdi
	call	__gnat_begin_handler_v1@PLT
	movq	%rax, %rsi
	movl	$0, %edx
	movq	%rbx, %rdi
	call	__gnat_end_handler_v1@PLT
	movb	$1, %bl
	jmp	.L81
.L77:
.LEHE26:
	popq	%rbx
	.cfi_def_cfa_offset 24
	popq	%rbp
	.cfi_def_cfa_offset 16
	popq	%r12
	.cfi_def_cfa_offset 8
	ret
	.cfi_endproc
.LFE61:
	.section	.gcc_except_table.main__univ__universe_itemIP___finalizer.12,"a",@progbits
	.align 4
.LLSDA61:
	.byte	0xff
	.byte	0x9b
	.uleb128 .LLSDATT61-.LLSDATTD61
.LLSDATTD61:
	.byte	0x1
	.uleb128 .LLSDACSE61-.LLSDACSB61
.LLSDACSB61:
	.uleb128 .LEHB22-.LFB61
	.uleb128 .LEHE22-.LEHB22
	.uleb128 0
	.uleb128 0
	.uleb128 .LEHB23-.LFB61
	.uleb128 .LEHE23-.LEHB23
	.uleb128 .L91-.LFB61
	.uleb128 0x1
	.uleb128 .LEHB24-.LFB61
	.uleb128 .LEHE24-.LEHB24
	.uleb128 .L92-.LFB61
	.uleb128 0x3
	.uleb128 .LEHB25-.LFB61
	.uleb128 .LEHE25-.LEHB25
	.uleb128 .L93-.LFB61
	.uleb128 0x5
	.uleb128 .LEHB26-.LFB61
	.uleb128 .LEHE26-.LEHB26
	.uleb128 0
	.uleb128 0
.LLSDACSE61:
	.byte	0x1
	.byte	0
	.byte	0x2
	.byte	0
	.byte	0x3
	.byte	0
	.align 4
	.long	DW.ref.__gnat_others_value-.
	.long	DW.ref.__gnat_others_value-.
	.long	DW.ref.__gnat_others_value-.
.LLSDATT61:
	.section	.text.main__univ__universe_itemIP___finalizer.12
	.size	main__univ__universe_itemIP___finalizer.12, .-main__univ__universe_itemIP___finalizer.12
	.section	.text.main__univ__universe_itemDF.15,"ax",@progbits
	.align 2
	.type	main__univ__universe_itemDF.15, @function
main__univ__universe_itemDF.15:
.LFB58:
	.cfi_startproc
	.cfi_personality 0x9b,DW.ref.__gnat_personality_v0
	.cfi_lsda 0x1b,.LLSDA58
	pushq	%r15
	.cfi_def_cfa_offset 16
	.cfi_offset 15, -16
	pushq	%r14
	.cfi_def_cfa_offset 24
	.cfi_offset 14, -24
	pushq	%rbx
	.cfi_def_cfa_offset 32
	.cfi_offset 3, -32
	movq	%rdi, %rbx
.LEHB27:
	call	ada__exceptions__triggered_by_abort@PLT
.LEHE27:
	movl	%eax, %r15d
	leaq	128(%rbx), %rdi
	movl	$1, %esi
.LEHB28:
	call	ada__numerics__big_numbers__big_reals__big_realDF@PLT
.LEHE28:
	movl	$0, %r14d
.L99:
	leaq	64(%rbx), %rdi
	movl	$1, %esi
.LEHB29:
	call	spatial__velocityDF@PLT
.LEHE29:
	jmp	.L102
.L110:
	movl	$98, %esi
	leaq	.LC66(%rip), %rdi
.LEHB30:
	call	__gnat_rcheck_PE_Finalize_Raised_Exception@PLT
.L106:
	movq	%rax, %rdi
	cmpq	$1, %rdx
	je	.L98
	call	_Unwind_Resume@PLT
.L98:
	movq	%rax, %r14
	call	__gnat_begin_handler_v1@PLT
	movq	%rax, %rsi
	movl	$0, %edx
	movq	%r14, %rdi
	call	__gnat_end_handler_v1@PLT
	movl	$1, %r14d
	jmp	.L99
.L107:
	movq	%rax, %rdi
	cmpq	$2, %rdx
	je	.L101
	call	_Unwind_Resume@PLT
.L101:
	movq	%rax, %r14
	call	__gnat_begin_handler_v1@PLT
	movq	%rax, %rsi
	movl	$0, %edx
	movq	%r14, %rdi
	call	__gnat_end_handler_v1@PLT
.LEHE30:
	movl	$1, %r14d
.L102:
	movl	$1, %esi
	movq	%rbx, %rdi
.LEHB31:
	call	spatial__positionDF@PLT
.LEHE31:
	jmp	.L105
.L108:
	movq	%rax, %rbx
	cmpq	$3, %rdx
	je	.L104
	movq	%rax, %rdi
.LEHB32:
	call	_Unwind_Resume@PLT
.L104:
	movq	%rax, %rdi
	call	__gnat_begin_handler_v1@PLT
	movq	%rax, %rsi
	movl	$0, %edx
	movq	%rbx, %rdi
	call	__gnat_end_handler_v1@PLT
	movl	$1, %r14d
.L105:
	movl	%r15d, %eax
	xorl	$1, %eax
	testb	%al, %r14b
	jne	.L110
.LEHE32:
	popq	%rbx
	.cfi_def_cfa_offset 24
	popq	%r14
	.cfi_def_cfa_offset 16
	popq	%r15
	.cfi_def_cfa_offset 8
	ret
	.cfi_endproc
.LFE58:
	.section	.gcc_except_table.main__univ__universe_itemDF.15,"a",@progbits
	.align 4
.LLSDA58:
	.byte	0xff
	.byte	0x9b
	.uleb128 .LLSDATT58-.LLSDATTD58
.LLSDATTD58:
	.byte	0x1
	.uleb128 .LLSDACSE58-.LLSDACSB58
.LLSDACSB58:
	.uleb128 .LEHB27-.LFB58
	.uleb128 .LEHE27-.LEHB27
	.uleb128 0
	.uleb128 0
	.uleb128 .LEHB28-.LFB58
	.uleb128 .LEHE28-.LEHB28
	.uleb128 .L106-.LFB58
	.uleb128 0x1
	.uleb128 .LEHB29-.LFB58
	.uleb128 .LEHE29-.LEHB29
	.uleb128 .L107-.LFB58
	.uleb128 0x3
	.uleb128 .LEHB30-.LFB58
	.uleb128 .LEHE30-.LEHB30
	.uleb128 0
	.uleb128 0
	.uleb128 .LEHB31-.LFB58
	.uleb128 .LEHE31-.LEHB31
	.uleb128 .L108-.LFB58
	.uleb128 0x5
	.uleb128 .LEHB32-.LFB58
	.uleb128 .LEHE32-.LEHB32
	.uleb128 0
	.uleb128 0
.LLSDACSE58:
	.byte	0x1
	.byte	0
	.byte	0x2
	.byte	0
	.byte	0x3
	.byte	0
	.align 4
	.long	DW.ref.__gnat_others_value-.
	.long	DW.ref.__gnat_others_value-.
	.long	DW.ref.__gnat_others_value-.
.LLSDATT58:
	.section	.text.main__univ__universe_itemDF.15
	.size	main__univ__universe_itemDF.15, .-main__univ__universe_itemDF.15
	.section	.text.main__univ__universe_itemFD.59,"ax",@progbits
	.align 2
	.type	main__univ__universe_itemFD.59, @function
main__univ__universe_itemFD.59:
.LFB59:
	.cfi_startproc
	subq	$8, %rsp
	.cfi_def_cfa_offset 16
	movl	$1, %esi
	call	main__univ__universe_itemDF.15
	addq	$8, %rsp
	.cfi_def_cfa_offset 8
	ret
	.cfi_endproc
.LFE59:
	.size	main__univ__universe_itemFD.59, .-main__univ__universe_itemFD.59
	.section	.text.main__univ__TitemarrayBDF.17,"ax",@progbits
	.align 2
	.type	main__univ__TitemarrayBDF.17, @function
main__univ__TitemarrayBDF.17:
.LFB65:
	.cfi_startproc
	.cfi_personality 0x9b,DW.ref.__gnat_personality_v0
	.cfi_lsda 0x1b,.LLSDA65
	pushq	%r15
	.cfi_def_cfa_offset 16
	.cfi_offset 15, -16
	pushq	%r14
	.cfi_def_cfa_offset 24
	.cfi_offset 14, -24
	pushq	%r13
	.cfi_def_cfa_offset 32
	.cfi_offset 13, -32
	pushq	%r12
	.cfi_def_cfa_offset 40
	.cfi_offset 12, -40
	pushq	%rbp
	.cfi_def_cfa_offset 48
	.cfi_offset 6, -48
	pushq	%rbx
	.cfi_def_cfa_offset 56
	.cfi_offset 3, -56
.LEHB33:
	subq	$8, %rsp
	.cfi_def_cfa_offset 64
	movq	%rdi, %r12
	movq	%rsi, %rbp
	movslq	(%rsi), %r13
	call	ada__exceptions__triggered_by_abort@PLT
	movl	%eax, %r15d
	movl	4(%rbp), %ebx
	movl	$0, %r14d
	jmp	.L115
.L114:
	movl	%r15d, %eax
	xorl	$1, %eax
	testb	%al, %r14b
	jne	.L122
	addq	$8, %rsp
	.cfi_remember_state
	.cfi_def_cfa_offset 56
	popq	%rbx
	.cfi_def_cfa_offset 48
	popq	%rbp
	.cfi_def_cfa_offset 40
	popq	%r12
	.cfi_def_cfa_offset 32
	popq	%r13
	.cfi_def_cfa_offset 24
	popq	%r14
	.cfi_def_cfa_offset 16
	popq	%r15
	.cfi_def_cfa_offset 8
	ret
.L122:
	.cfi_restore_state
	movl	$104, %esi
	leaq	.LC66(%rip), %rdi
	call	__gnat_rcheck_PE_Finalize_Raised_Exception@PLT
.L120:
	movq	%rax, %rdi
	cmpq	$1, %rdx
	je	.L118
	call	_Unwind_Resume@PLT
.L118:
	movq	%rax, %r14
	call	__gnat_begin_handler_v1@PLT
	movq	%rax, %rsi
	movl	$0, %edx
	movq	%r14, %rdi
	call	__gnat_end_handler_v1@PLT
.LEHE33:
	movl	$1, %r14d
.L119:
	subl	$1, %ebx
.L115:
	cmpl	%ebx, 0(%rbp)
	jg	.L114
	movslq	%ebx, %rax
	subq	%r13, %rax
	leaq	(%rax,%rax,4), %rdi
	salq	$5, %rdi
	addq	%r12, %rdi
	movl	$1, %esi
.LEHB34:
	call	main__univ__universe_itemDF.15
.LEHE34:
	jmp	.L119
	.cfi_endproc
.LFE65:
	.section	.gcc_except_table.main__univ__TitemarrayBDF.17,"a",@progbits
	.align 4
.LLSDA65:
	.byte	0xff
	.byte	0x9b
	.uleb128 .LLSDATT65-.LLSDATTD65
.LLSDATTD65:
	.byte	0x1
	.uleb128 .LLSDACSE65-.LLSDACSB65
.LLSDACSB65:
	.uleb128 .LEHB33-.LFB65
	.uleb128 .LEHE33-.LEHB33
	.uleb128 0
	.uleb128 0
	.uleb128 .LEHB34-.LFB65
	.uleb128 .LEHE34-.LEHB34
	.uleb128 .L120-.LFB65
	.uleb128 0x1
.LLSDACSE65:
	.byte	0x1
	.byte	0
	.align 4
	.long	DW.ref.__gnat_others_value-.
.LLSDATT65:
	.section	.text.main__univ__TitemarrayBDF.17
	.size	main__univ__TitemarrayBDF.17, .-main__univ__TitemarrayBDF.17
	.section	.rodata
	.align 8
.LC8:
	.long	1
	.long	10
	.section	.text.main__univ__init__B879b__T878b_895FD.53,"ax",@progbits
	.align 2
	.type	main__univ__init__B879b__T878b_895FD.53, @function
main__univ__init__B879b__T878b_895FD.53:
.LFB3:
	.cfi_startproc
	subq	$8, %rsp
	.cfi_def_cfa_offset 16
	movl	$1, %edx
	leaq	.LC8(%rip), %rsi
	call	main__univ__TitemarrayBDF.17
	addq	$8, %rsp
	.cfi_def_cfa_offset 8
	ret
	.cfi_endproc
.LFE3:
	.size	main__univ__init__B879b__T878b_895FD.53, .-main__univ__init__B879b__T878b_895FD.53
	.section	.text.main__univ__universeIP___finalizer.16,"ax",@progbits
	.align 2
	.type	main__univ__universeIP___finalizer.16, @function
main__univ__universeIP___finalizer.16:
.LFB73:
	.cfi_startproc
	.cfi_personality 0x9b,DW.ref.__gnat_personality_v0
	.cfi_lsda 0x1b,.LLSDA73
	pushq	%r12
	.cfi_def_cfa_offset 16
	.cfi_offset 12, -16
	pushq	%rbp
	.cfi_def_cfa_offset 24
	.cfi_offset 6, -24
	pushq	%rbx
	.cfi_def_cfa_offset 32
	.cfi_offset 3, -32
	movq	%rdi, %rbx
	movq	%r10, %r12
.LEHB35:
	call	ada__exceptions__triggered_by_abort@PLT
.LEHE35:
	movl	%eax, %ebp
	cmpl	$1, (%r12)
	jne	.L131
.L127:
	movq	%rbx, %rdi
	movl	$1, %edx
	leaq	.LC8(%rip), %rsi
.LEHB36:
	call	main__univ__TitemarrayBDF.17
.LEHE36:
	movb	$0, %al
.L126:
	xorl	$1, %ebp
	testb	%al, %bpl
	je	.L125
	movl	$106, %esi
	leaq	.LC66(%rip), %rdi
.LEHB37:
	call	__gnat_rcheck_PE_Finalize_Raised_Exception@PLT
.L131:
	movb	$0, %al
	jmp	.L126
.L132:
	movq	%rax, %rbx
	cmpq	$1, %rdx
	je	.L130
	movq	%rax, %rdi
	call	_Unwind_Resume@PLT
.L130:
	movq	%rax, %rdi
	call	__gnat_begin_handler_v1@PLT
	movq	%rax, %rsi
	movl	$0, %edx
	movq	%rbx, %rdi
	call	__gnat_end_handler_v1@PLT
	movb	$1, %al
	jmp	.L126
.L125:
.LEHE37:
	popq	%rbx
	.cfi_def_cfa_offset 24
	popq	%rbp
	.cfi_def_cfa_offset 16
	popq	%r12
	.cfi_def_cfa_offset 8
	ret
	.cfi_endproc
.LFE73:
	.section	.gcc_except_table.main__univ__universeIP___finalizer.16,"a",@progbits
	.align 4
.LLSDA73:
	.byte	0xff
	.byte	0x9b
	.uleb128 .LLSDATT73-.LLSDATTD73
.LLSDATTD73:
	.byte	0x1
	.uleb128 .LLSDACSE73-.LLSDACSB73
.LLSDACSB73:
	.uleb128 .LEHB35-.LFB73
	.uleb128 .LEHE35-.LEHB35
	.uleb128 0
	.uleb128 0
	.uleb128 .LEHB36-.LFB73
	.uleb128 .LEHE36-.LEHB36
	.uleb128 .L132-.LFB73
	.uleb128 0x1
	.uleb128 .LEHB37-.LFB73
	.uleb128 .LEHE37-.LEHB37
	.uleb128 0
	.uleb128 0
.LLSDACSE73:
	.byte	0x1
	.byte	0
	.align 4
	.long	DW.ref.__gnat_others_value-.
.LLSDATT73:
	.section	.text.main__univ__universeIP___finalizer.16
	.size	main__univ__universeIP___finalizer.16, .-main__univ__universeIP___finalizer.16
	.section	.rodata
.LC67:
	.ascii	"a-nbnbin.adb"
	.zero	1
	.section	.text.main__fc__conv__to_big_integer___finalizer.21,"ax",@progbits
	.align 2
	.type	main__fc__conv__to_big_integer___finalizer.21, @function
main__fc__conv__to_big_integer___finalizer.21:
.LFB18:
	.cfi_startproc
	.cfi_personality 0x9b,DW.ref.__gnat_personality_v0
	.cfi_lsda 0x1b,.LLSDA18
	pushq	%r14
	.cfi_def_cfa_offset 16
	.cfi_offset 14, -16
	pushq	%rbx
	.cfi_def_cfa_offset 24
	.cfi_offset 3, -24
.LEHB38:
	subq	$8, %rsp
	.cfi_def_cfa_offset 32
	movq	%r10, %rbx
	call	ada__exceptions__triggered_by_abort@PLT
	movl	%eax, %r14d
	call	*system__soft_links__abort_defer(%rip)
.LEHE38:
	movq	ada__numerics__big_numbers__big_integers__big_integerFD@GOTPCREL(%rip), %rsi
	movq	%rbx, %rdi
.LEHB39:
	call	system__finalization_primitives__finalize_object@PLT
.LEHE39:
	movl	$0, %ebx
.L138:
.LEHB40:
	call	*system__soft_links__abort_undefer(%rip)
	movl	%r14d, %eax
	xorl	$1, %eax
	testb	%al, %bl
	jne	.L141
	addq	$8, %rsp
	.cfi_remember_state
	.cfi_def_cfa_offset 24
	popq	%rbx
	.cfi_def_cfa_offset 16
	popq	%r14
	.cfi_def_cfa_offset 8
	ret
.L141:
	.cfi_restore_state
	movl	$205, %esi
	leaq	.LC67(%rip), %rdi
	call	__gnat_rcheck_PE_Finalize_Raised_Exception@PLT
.L139:
	movq	%rax, %rdi
	cmpq	$1, %rdx
	je	.L137
	call	_Unwind_Resume@PLT
.L137:
	movq	%rax, %rbx
	movq	%rax, %rdi
	call	__gnat_begin_handler_v1@PLT
	movq	%rax, %rsi
	movl	$0, %edx
	movq	%rbx, %rdi
	call	__gnat_end_handler_v1@PLT
.LEHE40:
	movl	$1, %ebx
	jmp	.L138
	.cfi_endproc
.LFE18:
	.section	.gcc_except_table.main__fc__conv__to_big_integer___finalizer.21,"a",@progbits
	.align 4
.LLSDA18:
	.byte	0xff
	.byte	0x9b
	.uleb128 .LLSDATT18-.LLSDATTD18
.LLSDATTD18:
	.byte	0x1
	.uleb128 .LLSDACSE18-.LLSDACSB18
.LLSDACSB18:
	.uleb128 .LEHB38-.LFB18
	.uleb128 .LEHE38-.LEHB38
	.uleb128 0
	.uleb128 0
	.uleb128 .LEHB39-.LFB18
	.uleb128 .LEHE39-.LEHB39
	.uleb128 .L139-.LFB18
	.uleb128 0x1
	.uleb128 .LEHB40-.LFB18
	.uleb128 .LEHE40-.LEHB40
	.uleb128 0
	.uleb128 0
.LLSDACSE18:
	.byte	0x1
	.byte	0
	.align 4
	.long	DW.ref.__gnat_others_value-.
.LLSDATT18:
	.section	.text.main__fc__conv__to_big_integer___finalizer.21
	.size	main__fc__conv__to_big_integer___finalizer.21, .-main__fc__conv__to_big_integer___finalizer.21
	.section	.rodata
.LC68:
	.ascii	"a-nbnbre.adb"
	.zero	1
	.section	.text.main__fc__to_big_real__B1098b___finalizer.23,"ax",@progbits
	.align 2
	.type	main__fc__to_big_real__B1098b___finalizer.23, @function
main__fc__to_big_real__B1098b___finalizer.23:
.LFB21:
	.cfi_startproc
	.cfi_personality 0x9b,DW.ref.__gnat_personality_v0
	.cfi_lsda 0x1b,.LLSDA21
	pushq	%r14
	.cfi_def_cfa_offset 16
	.cfi_offset 14, -16
	pushq	%rbx
	.cfi_def_cfa_offset 24
	.cfi_offset 3, -24
.LEHB41:
	subq	$8, %rsp
	.cfi_def_cfa_offset 32
	movq	%r10, %rbx
	call	ada__exceptions__triggered_by_abort@PLT
	movl	%eax, %r14d
	call	*system__soft_links__abort_defer(%rip)
.LEHE41:
	addq	$120, %rbx
	movq	%rbx, %rdi
	movq	ada__numerics__big_numbers__big_integers__big_integerFD@GOTPCREL(%rip), %rsi
.LEHB42:
	call	system__finalization_primitives__finalize_object@PLT
.LEHE42:
	movl	$0, %ebx
.L146:
.LEHB43:
	call	*system__soft_links__abort_undefer(%rip)
	movl	%r14d, %eax
	xorl	$1, %eax
	testb	%al, %bl
	jne	.L149
	addq	$8, %rsp
	.cfi_remember_state
	.cfi_def_cfa_offset 24
	popq	%rbx
	.cfi_def_cfa_offset 16
	popq	%r14
	.cfi_def_cfa_offset 8
	ret
.L149:
	.cfi_restore_state
	movl	$149, %esi
	leaq	.LC68(%rip), %rdi
	call	__gnat_rcheck_PE_Finalize_Raised_Exception@PLT
.L147:
	movq	%rax, %rdi
	cmpq	$1, %rdx
	je	.L145
	call	_Unwind_Resume@PLT
.L145:
	movq	%rax, %rbx
	movq	%rax, %rdi
	call	__gnat_begin_handler_v1@PLT
	movq	%rax, %rsi
	movl	$0, %edx
	movq	%rbx, %rdi
	call	__gnat_end_handler_v1@PLT
.LEHE43:
	movl	$1, %ebx
	jmp	.L146
	.cfi_endproc
.LFE21:
	.section	.gcc_except_table.main__fc__to_big_real__B1098b___finalizer.23,"a",@progbits
	.align 4
.LLSDA21:
	.byte	0xff
	.byte	0x9b
	.uleb128 .LLSDATT21-.LLSDATTD21
.LLSDATTD21:
	.byte	0x1
	.uleb128 .LLSDACSE21-.LLSDACSB21
.LLSDACSB21:
	.uleb128 .LEHB41-.LFB21
	.uleb128 .LEHE41-.LEHB41
	.uleb128 0
	.uleb128 0
	.uleb128 .LEHB42-.LFB21
	.uleb128 .LEHE42-.LEHB42
	.uleb128 .L147-.LFB21
	.uleb128 0x1
	.uleb128 .LEHB43-.LFB21
	.uleb128 .LEHE43-.LEHB43
	.uleb128 0
	.uleb128 0
.LLSDACSE21:
	.byte	0x1
	.byte	0
	.align 4
	.long	DW.ref.__gnat_others_value-.
.LLSDATT21:
	.section	.text.main__fc__to_big_real__B1098b___finalizer.23
	.size	main__fc__to_big_real__B1098b___finalizer.23, .-main__fc__to_big_real__B1098b___finalizer.23
	.section	.text.main__fc__to_big_real__B1159b___finalizer.26,"ax",@progbits
	.align 2
	.type	main__fc__to_big_real__B1159b___finalizer.26, @function
main__fc__to_big_real__B1159b___finalizer.26:
.LFB24:
	.cfi_startproc
	.cfi_personality 0x9b,DW.ref.__gnat_personality_v0
	.cfi_lsda 0x1b,.LLSDA24
	pushq	%r14
	.cfi_def_cfa_offset 16
	.cfi_offset 14, -16
	pushq	%rbx
	.cfi_def_cfa_offset 24
	.cfi_offset 3, -24
.LEHB44:
	subq	$8, %rsp
	.cfi_def_cfa_offset 32
	movq	%r10, %rbx
	call	ada__exceptions__triggered_by_abort@PLT
	movl	%eax, %r14d
	call	*system__soft_links__abort_defer(%rip)
.LEHE44:
	addq	$64, %rbx
	movq	%rbx, %rdi
	movq	ada__numerics__big_numbers__big_integers__big_integerFD@GOTPCREL(%rip), %rsi
.LEHB45:
	call	system__finalization_primitives__finalize_object@PLT
.LEHE45:
	movl	$0, %ebx
.L154:
.LEHB46:
	call	*system__soft_links__abort_undefer(%rip)
	movl	%r14d, %eax
	xorl	$1, %eax
	testb	%al, %bl
	jne	.L157
	addq	$8, %rsp
	.cfi_remember_state
	.cfi_def_cfa_offset 24
	popq	%rbx
	.cfi_def_cfa_offset 16
	popq	%r14
	.cfi_def_cfa_offset 8
	ret
.L157:
	.cfi_restore_state
	movl	$160, %esi
	leaq	.LC68(%rip), %rdi
	call	__gnat_rcheck_PE_Finalize_Raised_Exception@PLT
.L155:
	movq	%rax, %rdi
	cmpq	$1, %rdx
	je	.L153
	call	_Unwind_Resume@PLT
.L153:
	movq	%rax, %rbx
	movq	%rax, %rdi
	call	__gnat_begin_handler_v1@PLT
	movq	%rax, %rsi
	movl	$0, %edx
	movq	%rbx, %rdi
	call	__gnat_end_handler_v1@PLT
.LEHE46:
	movl	$1, %ebx
	jmp	.L154
	.cfi_endproc
.LFE24:
	.section	.gcc_except_table.main__fc__to_big_real__B1159b___finalizer.26,"a",@progbits
	.align 4
.LLSDA24:
	.byte	0xff
	.byte	0x9b
	.uleb128 .LLSDATT24-.LLSDATTD24
.LLSDATTD24:
	.byte	0x1
	.uleb128 .LLSDACSE24-.LLSDACSB24
.LLSDACSB24:
	.uleb128 .LEHB44-.LFB24
	.uleb128 .LEHE44-.LEHB44
	.uleb128 0
	.uleb128 0
	.uleb128 .LEHB45-.LFB24
	.uleb128 .LEHE45-.LEHB45
	.uleb128 .L155-.LFB24
	.uleb128 0x1
	.uleb128 .LEHB46-.LFB24
	.uleb128 .LEHE46-.LEHB46
	.uleb128 0
	.uleb128 0
.LLSDACSE24:
	.byte	0x1
	.byte	0
	.align 4
	.long	DW.ref.__gnat_others_value-.
.LLSDATT24:
	.section	.text.main__fc__to_big_real__B1159b___finalizer.26
	.size	main__fc__to_big_real__B1159b___finalizer.26, .-main__fc__to_big_real__B1159b___finalizer.26
	.section	.text.main__fc__to_big_real__B1171b___finalizer.27,"ax",@progbits
	.align 2
	.type	main__fc__to_big_real__B1171b___finalizer.27, @function
main__fc__to_big_real__B1171b___finalizer.27:
.LFB25:
	.cfi_startproc
	.cfi_personality 0x9b,DW.ref.__gnat_personality_v0
	.cfi_lsda 0x1b,.LLSDA25
	pushq	%r14
	.cfi_def_cfa_offset 16
	.cfi_offset 14, -16
	pushq	%rbx
	.cfi_def_cfa_offset 24
	.cfi_offset 3, -24
.LEHB47:
	subq	$8, %rsp
	.cfi_def_cfa_offset 32
	movq	%r10, %rbx
	call	ada__exceptions__triggered_by_abort@PLT
	movl	%eax, %r14d
	call	*system__soft_links__abort_defer(%rip)
.LEHE47:
	addq	$40, %rbx
	movq	%rbx, %rdi
	movq	ada__numerics__big_numbers__big_integers__big_integerFD@GOTPCREL(%rip), %rsi
.LEHB48:
	call	system__finalization_primitives__finalize_object@PLT
.LEHE48:
	movl	$0, %ebx
.L162:
.LEHB49:
	call	*system__soft_links__abort_undefer(%rip)
	movl	%r14d, %eax
	xorl	$1, %eax
	testb	%al, %bl
	jne	.L165
	addq	$8, %rsp
	.cfi_remember_state
	.cfi_def_cfa_offset 24
	popq	%rbx
	.cfi_def_cfa_offset 16
	popq	%r14
	.cfi_def_cfa_offset 8
	ret
.L165:
	.cfi_restore_state
	movl	$165, %esi
	leaq	.LC68(%rip), %rdi
	call	__gnat_rcheck_PE_Finalize_Raised_Exception@PLT
.L163:
	movq	%rax, %rdi
	cmpq	$1, %rdx
	je	.L161
	call	_Unwind_Resume@PLT
.L161:
	movq	%rax, %rbx
	movq	%rax, %rdi
	call	__gnat_begin_handler_v1@PLT
	movq	%rax, %rsi
	movl	$0, %edx
	movq	%rbx, %rdi
	call	__gnat_end_handler_v1@PLT
.LEHE49:
	movl	$1, %ebx
	jmp	.L162
	.cfi_endproc
.LFE25:
	.section	.gcc_except_table.main__fc__to_big_real__B1171b___finalizer.27,"a",@progbits
	.align 4
.LLSDA25:
	.byte	0xff
	.byte	0x9b
	.uleb128 .LLSDATT25-.LLSDATTD25
.LLSDATTD25:
	.byte	0x1
	.uleb128 .LLSDACSE25-.LLSDACSB25
.LLSDACSB25:
	.uleb128 .LEHB47-.LFB25
	.uleb128 .LEHE47-.LEHB47
	.uleb128 0
	.uleb128 0
	.uleb128 .LEHB48-.LFB25
	.uleb128 .LEHE48-.LEHB48
	.uleb128 .L163-.LFB25
	.uleb128 0x1
	.uleb128 .LEHB49-.LFB25
	.uleb128 .LEHE49-.LEHB49
	.uleb128 0
	.uleb128 0
.LLSDACSE25:
	.byte	0x1
	.byte	0
	.align 4
	.long	DW.ref.__gnat_others_value-.
.LLSDATT25:
	.section	.text.main__fc__to_big_real__B1171b___finalizer.27
	.size	main__fc__to_big_real__B1171b___finalizer.27, .-main__fc__to_big_real__B1171b___finalizer.27
	.section	.rodata
.LC69:
	.ascii	"universe.adb"
	.zero	1
	.section	.text.main__univ__tick__L_2__B1080b___finalizer.33,"ax",@progbits
	.align 2
	.type	main__univ__tick__L_2__B1080b___finalizer.33, @function
main__univ__tick__L_2__B1080b___finalizer.33:
.LFB16:
	.cfi_startproc
	.cfi_personality 0x9b,DW.ref.__gnat_personality_v0
	.cfi_lsda 0x1b,.LLSDA16
	pushq	%r14
	.cfi_def_cfa_offset 16
	.cfi_offset 14, -16
	pushq	%rbx
	.cfi_def_cfa_offset 24
	.cfi_offset 3, -24
.LEHB50:
	subq	$8, %rsp
	.cfi_def_cfa_offset 32
	movq	%r10, %rbx
	call	ada__exceptions__triggered_by_abort@PLT
	movl	%eax, %r14d
	call	*system__soft_links__abort_defer(%rip)
.LEHE50:
	movq	spatial__positionFD@GOTPCREL(%rip), %rsi
	movq	%rbx, %rdi
.LEHB51:
	call	system__finalization_primitives__finalize_object@PLT
.LEHE51:
	movl	$0, %ebx
.L170:
.LEHB52:
	call	*system__soft_links__abort_undefer(%rip)
	movl	%r14d, %eax
	xorl	$1, %eax
	testb	%al, %bl
	jne	.L173
	addq	$8, %rsp
	.cfi_remember_state
	.cfi_def_cfa_offset 24
	popq	%rbx
	.cfi_def_cfa_offset 16
	popq	%r14
	.cfi_def_cfa_offset 8
	ret
.L173:
	.cfi_restore_state
	movl	$82, %esi
	leaq	.LC69(%rip), %rdi
	call	__gnat_rcheck_PE_Finalize_Raised_Exception@PLT
.L171:
	movq	%rax, %rdi
	cmpq	$1, %rdx
	je	.L169
	call	_Unwind_Resume@PLT
.L169:
	movq	%rax, %rbx
	movq	%rax, %rdi
	call	__gnat_begin_handler_v1@PLT
	movq	%rax, %rsi
	movl	$0, %edx
	movq	%rbx, %rdi
	call	__gnat_end_handler_v1@PLT
.LEHE52:
	movl	$1, %ebx
	jmp	.L170
	.cfi_endproc
.LFE16:
	.section	.gcc_except_table.main__univ__tick__L_2__B1080b___finalizer.33,"a",@progbits
	.align 4
.LLSDA16:
	.byte	0xff
	.byte	0x9b
	.uleb128 .LLSDATT16-.LLSDATTD16
.LLSDATTD16:
	.byte	0x1
	.uleb128 .LLSDACSE16-.LLSDACSB16
.LLSDACSB16:
	.uleb128 .LEHB50-.LFB16
	.uleb128 .LEHE50-.LEHB50
	.uleb128 0
	.uleb128 0
	.uleb128 .LEHB51-.LFB16
	.uleb128 .LEHE51-.LEHB51
	.uleb128 .L171-.LFB16
	.uleb128 0x1
	.uleb128 .LEHB52-.LFB16
	.uleb128 .LEHE52-.LEHB52
	.uleb128 0
	.uleb128 0
.LLSDACSE16:
	.byte	0x1
	.byte	0
	.align 4
	.long	DW.ref.__gnat_others_value-.
.LLSDATT16:
	.section	.text.main__univ__tick__L_2__B1080b___finalizer.33
	.size	main__univ__tick__L_2__B1080b___finalizer.33, .-main__univ__tick__L_2__B1080b___finalizer.33
	.section	.text.main__univ__tick.30,"ax",@progbits
	.align 2
	.type	main__univ__tick.30, @function
main__univ__tick.30:
.LVL0:
.LFB15:
	.file 1 "/workspaces/HISE_Assignment_3/src/universe.adb"
	.loc 1 64 4 view -0
	.cfi_startproc
	.cfi_personality 0x9b,DW.ref.__gnat_personality_v0
	.cfi_lsda 0x1b,.LLSDA15
	.loc 1 64 4 is_stmt 0 view .LVU1
	pushq	%r15
	.cfi_def_cfa_offset 16
	.cfi_offset 15, -16
	pushq	%r14
	.cfi_def_cfa_offset 24
	.cfi_offset 14, -24
	pushq	%r13
	.cfi_def_cfa_offset 32
	.cfi_offset 13, -32
	pushq	%r12
	.cfi_def_cfa_offset 40
	.cfi_offset 12, -40
	pushq	%rbp
	.cfi_def_cfa_offset 48
	.cfi_offset 6, -48
	pushq	%rbx
	.cfi_def_cfa_offset 56
	.cfi_offset 3, -56
.LEHB53:
	subq	$744, %rsp
	.cfi_def_cfa_offset 800
	.loc 1 64 4 is_stmt 1 discriminator 1 view .LVU2
	leaq	800(%rsp), %rax
	movq	%rax, 24(%rsp)
	.loc 1 68 22 view .LVU3
	movl	1600(%rdi), %r15d
	cmpl	$10, %r15d
	ja	.L189
	movq	%rdi, %r13
.LBB481:
	.loc 1 68 11 discriminator 2 view .LVU4
	movl	$1, %r12d
	jmp	.L175
.L189:
	.loc 1 68 11 is_stmt 0 discriminator 2 view .LVU5
.LBE481:
	.loc 1 68 22 is_stmt 1 discriminator 1 view .LVU6
	movl	$68, %esi
	leaq	.LC69(%rip), %rdi
.LVL1:
	.loc 1 68 22 is_stmt 0 discriminator 1 view .LVU7
	call	__gnat_rcheck_CE_Invalid_Data@PLT
.LVL2:
.LEHE53:
.L190:
.LBB486:
.LBB482:
	.loc 1 82 36 is_stmt 1 discriminator 6 view .LVU8
	leaq	32(%rsp), %r14
	movq	%rsp, %rdx
	movq	spatial__positionFD@GOTPCREL(%rip), %rsi
	movq	%r14, %rdi
.LEHB54:
	call	system__finalization_primitives__attach_object_to_node@PLT
.LVL3:
.LEHE54:
.LEHB55:
	.loc 1 82 26 discriminator 9 view .LVU9
	call	*system__soft_links__abort_defer(%rip)
.LVL4:
.LEHE55:
.LBB483:
	.loc 1 82 26 is_stmt 0 discriminator 12 view .LVU10
	cmpq	%rbp, %r14
	je	.L177
	.loc 1 82 21 is_stmt 1 discriminator 13 view .LVU11
	movl	$1, %esi
	movq	%rbp, %rdi
.LEHB56:
	call	spatial__positionDF@PLT
.LVL5:
	.loc 1 82 26 discriminator 16 view .LVU12
	movdqa	32(%rsp), %xmm0
	movups	%xmm0, 0(%rbp)
	movdqa	48(%rsp), %xmm1
	movups	%xmm1, 16(%rbp)
	movdqa	64(%rsp), %xmm2
	movups	%xmm2, 32(%rbp)
	movdqa	80(%rsp), %xmm3
	movups	%xmm3, 48(%rbp)
	.loc 1 82 21 discriminator 17 view .LVU13
	movl	$1, %esi
	movq	%rbp, %rdi
	call	spatial__positionDA@PLT
.LVL6:
.LEHE56:
.L177:
.LEHB57:
.LBE483:
	.loc 1 82 0 discriminator 19 view .LVU14
	call	system__standard_library__abort_undefer_direct@PLT
.LVL7:
.LEHE57:
	.loc 1 82 0 is_stmt 0 view .LVU15
	movq	%rsp, %r10
.LEHB58:
	call	main__univ__tick__L_2__B1080b___finalizer.33
.LVL8:
.LEHE58:
.LBE482:
	.loc 1 68 11 is_stmt 1 discriminator 5 view .LVU16
	addl	$1, %r12d
.LVL9:
.L175:
	.loc 1 68 11 is_stmt 0 discriminator 4 view .LVU17
	cmpl	%r15d, %r12d
	jg	.L174
.LVL10:
.LBB485:
	.loc 1 82 26 is_stmt 1 view .LVU18
	movq	$0, (%rsp)
	movq	$0, 8(%rsp)
	movq	$0, 16(%rsp)
.LVL11:
	.loc 1 82 36 discriminator 3 view .LVU19
	movslq	%r12d, %rbx
	leaq	-5(%rbx,%rbx,4), %rbp
	salq	$5, %rbp
	addq	%r13, %rbp
	leaq	32(%rsp), %rdi
	leaq	(%rbx,%rbx,4), %rax
	salq	$5, %rax
	leaq	-96(%r13,%rax), %rdx
	movq	%rbp, %rsi
.LEHB59:
	call	spatial__move@PLT
.LVL12:
	jmp	.L190
.L186:
	movq	%rax, %rbp
	cmpq	$1, %rdx
	je	.L179
	movq	%rax, %rbx
.LVL13:
.L180:
	.loc 1 82 0 discriminator 11 view .LVU20
	call	system__standard_library__abort_undefer_direct@PLT
.LVL14:
.LEHE59:
	jmp	.L182
.LVL15:
.L179:
	.loc 1 82 0 is_stmt 0 discriminator 11 view .LVU21
	movq	%rax, %rdi
	call	__gnat_begin_handler_v1@PLT
.LVL16:
	.loc 1 82 0 discriminator 11 view .LVU22
	movq	%rax, %r12
.LVL17:
	.loc 1 82 0 discriminator 11 view .LVU23
	leaq	96(%rsp), %rdi
	movq	%rbp, %rsi
.LEHB60:
	call	__gnat_set_exception_parameter@PLT
.LVL18:
.LBB484:
	.loc 1 82 26 is_stmt 1 view .LVU24
	leaq	96(%rsp), %rdi
	call	__gnat_raise_from_controlled_operation@PLT
.LVL19:
.LEHE60:
.L187:
	.loc 1 82 26 is_stmt 0 view .LVU25
	movq	%rax, %rbx
.LVL20:
	.loc 1 82 26 view .LVU26
	movq	%rax, %rdx
	movq	%r12, %rsi
	movq	%rbp, %rdi
.LEHB61:
	call	__gnat_end_handler_v1@PLT
.LVL21:
.LEHE61:
	.loc 1 82 26 view .LVU27
	jmp	.L180
.LVL22:
.L185:
	.loc 1 82 26 view .LVU28
.LBE484:
	.loc 1 82 0 is_stmt 1 discriminator 11 view .LVU29
	movq	%rax, %rbx
	jmp	.L180
.L184:
	.loc 1 82 0 is_stmt 0 discriminator 26 view .LVU30
	movq	%rax, %rbx
.L182:
	movq	%rsp, %r10
.LEHB62:
	call	main__univ__tick__L_2__B1080b___finalizer.33
.LVL23:
	movq	%rbx, %rdi
	call	_Unwind_Resume@PLT
.LVL24:
.L174:
	.loc 1 82 0 discriminator 26 view .LVU31
.LBE485:
.LBE486:
	.loc 1 84 8 is_stmt 1 view .LVU32
	addq	$744, %rsp
	.cfi_def_cfa_offset 56
.LEHE62:
	popq	%rbx
	.cfi_def_cfa_offset 48
	popq	%rbp
	.cfi_def_cfa_offset 40
	popq	%r12
	.cfi_def_cfa_offset 32
.LVL25:
	.loc 1 84 8 is_stmt 0 view .LVU33
	popq	%r13
	.cfi_def_cfa_offset 24
.LVL26:
	.loc 1 84 8 view .LVU34
	popq	%r14
	.cfi_def_cfa_offset 16
	popq	%r15
	.cfi_def_cfa_offset 8
	ret
	.cfi_endproc
.LFE15:
	.section	.gcc_except_table.main__univ__tick.30,"a",@progbits
	.align 4
.LLSDA15:
	.byte	0xff
	.byte	0x9b
	.uleb128 .LLSDATT15-.LLSDATTD15
.LLSDATTD15:
	.byte	0x1
	.uleb128 .LLSDACSE15-.LLSDACSB15
.LLSDACSB15:
	.uleb128 .LEHB53-.LFB15
	.uleb128 .LEHE53-.LEHB53
	.uleb128 0
	.uleb128 0
	.uleb128 .LEHB54-.LFB15
	.uleb128 .LEHE54-.LEHB54
	.uleb128 .L184-.LFB15
	.uleb128 0
	.uleb128 .LEHB55-.LFB15
	.uleb128 .LEHE55-.LEHB55
	.uleb128 .L185-.LFB15
	.uleb128 0
	.uleb128 .LEHB56-.LFB15
	.uleb128 .LEHE56-.LEHB56
	.uleb128 .L186-.LFB15
	.uleb128 0x3
	.uleb128 .LEHB57-.LFB15
	.uleb128 .LEHE57-.LEHB57
	.uleb128 .L184-.LFB15
	.uleb128 0
	.uleb128 .LEHB58-.LFB15
	.uleb128 .LEHE58-.LEHB58
	.uleb128 0
	.uleb128 0
	.uleb128 .LEHB59-.LFB15
	.uleb128 .LEHE59-.LEHB59
	.uleb128 .L184-.LFB15
	.uleb128 0
	.uleb128 .LEHB60-.LFB15
	.uleb128 .LEHE60-.LEHB60
	.uleb128 .L187-.LFB15
	.uleb128 0
	.uleb128 .LEHB61-.LFB15
	.uleb128 .LEHE61-.LEHB61
	.uleb128 .L185-.LFB15
	.uleb128 0
	.uleb128 .LEHB62-.LFB15
	.uleb128 .LEHE62-.LEHB62
	.uleb128 0
	.uleb128 0
.LLSDACSE15:
	.byte	0
	.byte	0
	.byte	0x1
	.byte	0x7d
	.align 4
	.long	DW.ref.__gnat_others_value-.
.LLSDATT15:
	.section	.text.main__univ__tick.30
	.size	main__univ__tick.30, .-main__univ__tick.30
	.section	.rodata
.LC70:
	.ascii	"a-nbnbre.ads"
	.zero	1
	.section	.text.ada__numerics__big_numbers__big_reals__to_big_real__B38s___finalizer.34,"ax",@progbits
	.align 2
	.type	ada__numerics__big_numbers__big_reals__to_big_real__B38s___finalizer.34, @function
ada__numerics__big_numbers__big_reals__to_big_real__B38s___finalizer.34:
.LFB118:
	.cfi_startproc
	.cfi_personality 0x9b,DW.ref.__gnat_personality_v0
	.cfi_lsda 0x1b,.LLSDA118
	pushq	%r14
	.cfi_def_cfa_offset 16
	.cfi_offset 14, -16
	pushq	%rbx
	.cfi_def_cfa_offset 24
	.cfi_offset 3, -24
.LEHB63:
	subq	$8, %rsp
	.cfi_def_cfa_offset 32
	movq	%r10, %rbx
	call	ada__exceptions__triggered_by_abort@PLT
	movl	%eax, %r14d
	call	*system__soft_links__abort_defer(%rip)
.LEHE63:
	movq	ada__numerics__big_numbers__big_integers__big_integerFD@GOTPCREL(%rip), %rsi
	movq	%rbx, %rdi
.LEHB64:
	call	system__finalization_primitives__finalize_object@PLT
.LEHE64:
	movl	$0, %ebx
.L195:
.LEHB65:
	call	*system__soft_links__abort_undefer(%rip)
	movl	%r14d, %eax
	xorl	$1, %eax
	testb	%al, %bl
	jne	.L198
	addq	$8, %rsp
	.cfi_remember_state
	.cfi_def_cfa_offset 24
	popq	%rbx
	.cfi_def_cfa_offset 16
	popq	%r14
	.cfi_def_cfa_offset 8
	ret
.L198:
	.cfi_restore_state
	movl	$62, %esi
	leaq	.LC70(%rip), %rdi
	call	__gnat_rcheck_PE_Finalize_Raised_Exception@PLT
.L196:
	movq	%rax, %rdi
	cmpq	$1, %rdx
	je	.L194
	call	_Unwind_Resume@PLT
.L194:
	movq	%rax, %rbx
	movq	%rax, %rdi
	call	__gnat_begin_handler_v1@PLT
	movq	%rax, %rsi
	movl	$0, %edx
	movq	%rbx, %rdi
	call	__gnat_end_handler_v1@PLT
.LEHE65:
	movl	$1, %ebx
	jmp	.L195
	.cfi_endproc
.LFE118:
	.section	.gcc_except_table.ada__numerics__big_numbers__big_reals__to_big_real__B38s___finalizer.34,"a",@progbits
	.align 4
.LLSDA118:
	.byte	0xff
	.byte	0x9b
	.uleb128 .LLSDATT118-.LLSDATTD118
.LLSDATTD118:
	.byte	0x1
	.uleb128 .LLSDACSE118-.LLSDACSB118
.LLSDACSB118:
	.uleb128 .LEHB63-.LFB118
	.uleb128 .LEHE63-.LEHB63
	.uleb128 0
	.uleb128 0
	.uleb128 .LEHB64-.LFB118
	.uleb128 .LEHE64-.LEHB64
	.uleb128 .L196-.LFB118
	.uleb128 0x1
	.uleb128 .LEHB65-.LFB118
	.uleb128 .LEHE65-.LEHB65
	.uleb128 0
	.uleb128 0
.LLSDACSE118:
	.byte	0x1
	.byte	0
	.align 4
	.long	DW.ref.__gnat_others_value-.
.LLSDATT118:
	.section	.text.ada__numerics__big_numbers__big_reals__to_big_real__B38s___finalizer.34
	.size	ada__numerics__big_numbers__big_reals__to_big_real__B38s___finalizer.34, .-ada__numerics__big_numbers__big_reals__to_big_real__B38s___finalizer.34
	.section	.text.main__univ__universe_itemDA.55,"ax",@progbits
	.align 2
	.type	main__univ__universe_itemDA.55, @function
main__univ__universe_itemDA.55:
.LFB57:
	.cfi_startproc
	.cfi_personality 0x9b,DW.ref.__gnat_personality_v0
	.cfi_lsda 0x1b,.LLSDA57
	pushq	%r15
	.cfi_def_cfa_offset 16
	.cfi_offset 15, -16
	pushq	%r14
	.cfi_def_cfa_offset 24
	.cfi_offset 14, -24
	pushq	%rbx
	.cfi_def_cfa_offset 32
	.cfi_offset 3, -32
	movq	%rdi, %rbx
.LEHB66:
	call	ada__exceptions__triggered_by_abort@PLT
.LEHE66:
	movl	%eax, %r15d
	movl	$1, %esi
	movq	%rbx, %rdi
.LEHB67:
	call	spatial__positionDA@PLT
.LEHE67:
	movl	$0, %r14d
.L203:
	leaq	64(%rbx), %rdi
	movl	$1, %esi
.LEHB68:
	call	spatial__velocityDA@PLT
.LEHE68:
	jmp	.L206
.L214:
	movl	$98, %esi
	leaq	.LC66(%rip), %rdi
.LEHB69:
	call	__gnat_rcheck_PE_Finalize_Raised_Exception@PLT
.L210:
	movq	%rax, %rdi
	cmpq	$1, %rdx
	je	.L202
	call	_Unwind_Resume@PLT
.L202:
	movq	%rax, %r14
	call	__gnat_begin_handler_v1@PLT
	movq	%rax, %rsi
	movl	$0, %edx
	movq	%r14, %rdi
	call	__gnat_end_handler_v1@PLT
	movl	$1, %r14d
	jmp	.L203
.L211:
	movq	%rax, %rdi
	cmpq	$2, %rdx
	je	.L205
	call	_Unwind_Resume@PLT
.L205:
	movq	%rax, %r14
	call	__gnat_begin_handler_v1@PLT
	movq	%rax, %rsi
	movl	$0, %edx
	movq	%r14, %rdi
	call	__gnat_end_handler_v1@PLT
.LEHE69:
	movl	$1, %r14d
.L206:
	leaq	128(%rbx), %rdi
	movl	$1, %esi
.LEHB70:
	call	ada__numerics__big_numbers__big_reals__big_realDA@PLT
.LEHE70:
	jmp	.L209
.L212:
	movq	%rax, %rbx
	cmpq	$3, %rdx
	je	.L208
	movq	%rax, %rdi
.LEHB71:
	call	_Unwind_Resume@PLT
.L208:
	movq	%rax, %rdi
	call	__gnat_begin_handler_v1@PLT
	movq	%rax, %rsi
	movl	$0, %edx
	movq	%rbx, %rdi
	call	__gnat_end_handler_v1@PLT
	movl	$1, %r14d
.L209:
	movl	%r15d, %eax
	xorl	$1, %eax
	testb	%al, %r14b
	jne	.L214
.LEHE71:
	popq	%rbx
	.cfi_def_cfa_offset 24
	popq	%r14
	.cfi_def_cfa_offset 16
	popq	%r15
	.cfi_def_cfa_offset 8
	ret
	.cfi_endproc
.LFE57:
	.section	.gcc_except_table.main__univ__universe_itemDA.55,"a",@progbits
	.align 4
.LLSDA57:
	.byte	0xff
	.byte	0x9b
	.uleb128 .LLSDATT57-.LLSDATTD57
.LLSDATTD57:
	.byte	0x1
	.uleb128 .LLSDACSE57-.LLSDACSB57
.LLSDACSB57:
	.uleb128 .LEHB66-.LFB57
	.uleb128 .LEHE66-.LEHB66
	.uleb128 0
	.uleb128 0
	.uleb128 .LEHB67-.LFB57
	.uleb128 .LEHE67-.LEHB67
	.uleb128 .L210-.LFB57
	.uleb128 0x1
	.uleb128 .LEHB68-.LFB57
	.uleb128 .LEHE68-.LEHB68
	.uleb128 .L211-.LFB57
	.uleb128 0x3
	.uleb128 .LEHB69-.LFB57
	.uleb128 .LEHE69-.LEHB69
	.uleb128 0
	.uleb128 0
	.uleb128 .LEHB70-.LFB57
	.uleb128 .LEHE70-.LEHB70
	.uleb128 .L212-.LFB57
	.uleb128 0x5
	.uleb128 .LEHB71-.LFB57
	.uleb128 .LEHE71-.LEHB71
	.uleb128 0
	.uleb128 0
.LLSDACSE57:
	.byte	0x1
	.byte	0
	.byte	0x2
	.byte	0
	.byte	0x3
	.byte	0
	.align 4
	.long	DW.ref.__gnat_others_value-.
	.long	DW.ref.__gnat_others_value-.
	.long	DW.ref.__gnat_others_value-.
.LLSDATT57:
	.section	.text.main__univ__universe_itemDA.55
	.size	main__univ__universe_itemDA.55, .-main__univ__universe_itemDA.55
	.section	.text.main__univ__TitemarrayBSA.54,"ax",@progbits
	.align 2
	.type	main__univ__TitemarrayBSA.54, @function
main__univ__TitemarrayBSA.54:
.LFB67:
	.cfi_startproc
	.cfi_personality 0x9b,DW.ref.__gnat_personality_v0
	.cfi_lsda 0x1b,.LLSDA67
	pushq	%r15
	.cfi_def_cfa_offset 16
	.cfi_offset 15, -16
	pushq	%r14
	.cfi_def_cfa_offset 24
	.cfi_offset 14, -24
	pushq	%r13
	.cfi_def_cfa_offset 32
	.cfi_offset 13, -32
	pushq	%r12
	.cfi_def_cfa_offset 40
	.cfi_offset 12, -40
	pushq	%rbp
	.cfi_def_cfa_offset 48
	.cfi_offset 6, -48
	pushq	%rbx
	.cfi_def_cfa_offset 56
	.cfi_offset 3, -56
.LEHB72:
	subq	$712, %rsp
	.cfi_def_cfa_offset 768
.LEHE72:
	movq	%rdi, %r14
	movq	%rsi, 24(%rsp)
	movq	%rcx, 40(%rsp)
	movl	%r8d, 56(%rsp)
	movl	%r9d, 60(%rsp)
	movl	768(%rsp), %r13d
	movl	784(%rsp), %eax
	movb	%al, 39(%rsp)
	movslq	(%rcx), %rdi
	movq	%rdi, 48(%rsp)
	movslq	(%rsi), %rdi
	movq	%rdi, 16(%rsp)
	cmpl	%r8d, %r9d
	jl	.L215
	movq	%rdx, %r15
	testb	%al, %al
	je	.L226
	movl	776(%rsp), %r13d
	movl	%r9d, %r12d
	jmp	.L218
.L226:
	movl	56(%rsp), %r12d
	jmp	.L218
.L231:
	movslq	%r12d, %rbx
	movslq	%r13d, %rbp
	movq	24(%rsp), %rax
	movslq	(%rax), %rdx
	movq	%rbx, %rax
	subq	%rdx, %rax
	leaq	(%rax,%rax,4), %rdx
	salq	$5, %rdx
	addq	%r14, %rdx
	movq	40(%rsp), %rax
	movslq	(%rax), %rcx
	movq	%rbp, %rax
	subq	%rcx, %rax
	leaq	(%rax,%rax,4), %rax
	salq	$5, %rax
	addq	%r15, %rax
	cmpq	%rax, %rdx
	je	.L219
	movq	%rbx, %rax
	movq	16(%rsp), %rsi
	subq	%rsi, %rax
	leaq	(%rax,%rax,4), %rax
	salq	$5, %rax
	addq	%r14, %rax
	movl	$1, %esi
	movq	%rax, 8(%rsp)
	movq	%rax, %rdi
.LEHB73:
	call	main__univ__universe_itemDF.15
	movq	16(%rsp), %rsi
	subq	%rsi, %rbx
	leaq	(%rbx,%rbx,4), %rax
	salq	$5, %rax
	addq	%r14, %rax
	movq	48(%rsp), %rsi
	subq	%rsi, %rbp
	leaq	0(%rbp,%rbp,4), %rdx
	salq	$5, %rdx
	addq	%r15, %rdx
	movq	(%rdx), %rcx
	movq	8(%rdx), %rbx
	movq	%rcx, (%rax)
	movq	%rbx, 8(%rax)
	movq	16(%rdx), %rcx
	movq	24(%rdx), %rbx
	movq	%rcx, 16(%rax)
	movq	%rbx, 24(%rax)
	movq	32(%rdx), %rcx
	movq	40(%rdx), %rbx
	movq	%rcx, 32(%rax)
	movq	%rbx, 40(%rax)
	movq	48(%rdx), %rcx
	movq	56(%rdx), %rbx
	movq	%rcx, 48(%rax)
	movq	%rbx, 56(%rax)
	movq	64(%rdx), %rcx
	movq	72(%rdx), %rbx
	movq	%rcx, 64(%rax)
	movq	%rbx, 72(%rax)
	movq	80(%rdx), %rcx
	movq	88(%rdx), %rbx
	movq	%rcx, 80(%rax)
	movq	%rbx, 88(%rax)
	movq	96(%rdx), %rcx
	movq	104(%rdx), %rbx
	movq	%rcx, 96(%rax)
	movq	%rbx, 104(%rax)
	movq	112(%rdx), %rcx
	movq	120(%rdx), %rbx
	movq	%rcx, 112(%rax)
	movq	%rbx, 120(%rax)
	movq	128(%rdx), %rcx
	movq	136(%rdx), %rbx
	movq	%rcx, 128(%rax)
	movq	%rbx, 136(%rax)
	movq	144(%rdx), %rcx
	movq	152(%rdx), %rbx
	movq	%rcx, 144(%rax)
	movq	%rbx, 152(%rax)
	movl	$1, %esi
	movq	8(%rsp), %rdi
	call	main__univ__universe_itemDA.55
.LEHE73:
.L219:
.LEHB74:
	call	system__standard_library__abort_undefer_direct@PLT
.LEHE74:
	cmpb	$0, 39(%rsp)
	je	.L220
	movl	56(%rsp), %eax
	cmpl	%eax, %r12d
	je	.L215
	subl	$1, %r12d
	subl	$1, %r13d
.L218:
.LEHB75:
	call	*system__soft_links__abort_defer(%rip)
.LEHE75:
	jmp	.L231
.L220:
	movl	60(%rsp), %eax
	cmpl	%eax, %r12d
	je	.L215
	addl	$1, %r12d
	addl	$1, %r13d
	jmp	.L218
.L228:
	movq	%rax, %rbp
	cmpq	$1, %rdx
	je	.L223
	movq	%rax, %rbx
.L224:
.LEHB76:
	call	system__standard_library__abort_undefer_direct@PLT
	movq	%rbx, %rdi
	call	_Unwind_Resume@PLT
.LEHE76:
.L223:
	movq	%rax, %rdi
	call	__gnat_begin_handler_v1@PLT
	movq	%rax, %r12
	leaq	64(%rsp), %rdi
	movq	%rbp, %rsi
.LEHB77:
	call	__gnat_set_exception_parameter@PLT
	leaq	64(%rsp), %rdi
	call	__gnat_raise_from_controlled_operation@PLT
.LEHE77:
.L229:
	movq	%rax, %rbx
	movq	%rax, %rdx
	movq	%r12, %rsi
	movq	%rbp, %rdi
.LEHB78:
	call	__gnat_end_handler_v1@PLT
.LEHE78:
	jmp	.L224
.L227:
	movq	%rax, %rbx
	jmp	.L224
.L215:
.LEHB79:
	addq	$712, %rsp
	.cfi_def_cfa_offset 56
.LEHE79:
	popq	%rbx
	.cfi_def_cfa_offset 48
	popq	%rbp
	.cfi_def_cfa_offset 40
	popq	%r12
	.cfi_def_cfa_offset 32
	popq	%r13
	.cfi_def_cfa_offset 24
	popq	%r14
	.cfi_def_cfa_offset 16
	popq	%r15
	.cfi_def_cfa_offset 8
	ret
	.cfi_endproc
.LFE67:
	.section	.gcc_except_table.main__univ__TitemarrayBSA.54,"a",@progbits
	.align 4
.LLSDA67:
	.byte	0xff
	.byte	0x9b
	.uleb128 .LLSDATT67-.LLSDATTD67
.LLSDATTD67:
	.byte	0x1
	.uleb128 .LLSDACSE67-.LLSDACSB67
.LLSDACSB67:
	.uleb128 .LEHB72-.LFB67
	.uleb128 .LEHE72-.LEHB72
	.uleb128 0
	.uleb128 0
	.uleb128 .LEHB73-.LFB67
	.uleb128 .LEHE73-.LEHB73
	.uleb128 .L228-.LFB67
	.uleb128 0x3
	.uleb128 .LEHB74-.LFB67
	.uleb128 .LEHE74-.LEHB74
	.uleb128 0
	.uleb128 0
	.uleb128 .LEHB75-.LFB67
	.uleb128 .LEHE75-.LEHB75
	.uleb128 .L227-.LFB67
	.uleb128 0
	.uleb128 .LEHB76-.LFB67
	.uleb128 .LEHE76-.LEHB76
	.uleb128 0
	.uleb128 0
	.uleb128 .LEHB77-.LFB67
	.uleb128 .LEHE77-.LEHB77
	.uleb128 .L229-.LFB67
	.uleb128 0
	.uleb128 .LEHB78-.LFB67
	.uleb128 .LEHE78-.LEHB78
	.uleb128 .L227-.LFB67
	.uleb128 0
	.uleb128 .LEHB79-.LFB67
	.uleb128 .LEHE79-.LEHB79
	.uleb128 0
	.uleb128 0
.LLSDACSE67:
	.byte	0
	.byte	0
	.byte	0x1
	.byte	0x7d
	.align 4
	.long	DW.ref.__gnat_others_value-.
.LLSDATT67:
	.section	.text.main__univ__TitemarrayBSA.54
	.size	main__univ__TitemarrayBSA.54, .-main__univ__TitemarrayBSA.54
	.section	.text.main__univ__init__B879b___finalizer.56,"ax",@progbits
	.align 2
	.type	main__univ__init__B879b___finalizer.56, @function
main__univ__init__B879b___finalizer.56:
.LFB4:
	.cfi_startproc
	.cfi_personality 0x9b,DW.ref.__gnat_personality_v0
	.cfi_lsda 0x1b,.LLSDA4
	pushq	%r14
	.cfi_def_cfa_offset 16
	.cfi_offset 14, -16
	pushq	%rbx
	.cfi_def_cfa_offset 24
	.cfi_offset 3, -24
.LEHB80:
	subq	$8, %rsp
	.cfi_def_cfa_offset 32
	movq	%r10, %rbx
	call	ada__exceptions__triggered_by_abort@PLT
	movl	%eax, %r14d
	call	*system__soft_links__abort_defer(%rip)
.LEHE80:
	addq	$16, %rbx
	movq	%rbx, %rdi
	leaq	main__univ__init__B879b__T878b_895FD.53(%rip), %rsi
.LEHB81:
	call	system__finalization_primitives__finalize_object@PLT
.LEHE81:
	movl	$0, %ebx
.L236:
.LEHB82:
	call	*system__soft_links__abort_undefer(%rip)
	movl	%r14d, %eax
	xorl	$1, %eax
	testb	%al, %bl
	jne	.L239
	addq	$8, %rsp
	.cfi_remember_state
	.cfi_def_cfa_offset 24
	popq	%rbx
	.cfi_def_cfa_offset 16
	popq	%r14
	.cfi_def_cfa_offset 8
	ret
.L239:
	.cfi_restore_state
	movl	$16, %esi
	leaq	.LC69(%rip), %rdi
	call	__gnat_rcheck_PE_Finalize_Raised_Exception@PLT
.L237:
	movq	%rax, %rdi
	cmpq	$1, %rdx
	je	.L235
	call	_Unwind_Resume@PLT
.L235:
	movq	%rax, %rbx
	movq	%rax, %rdi
	call	__gnat_begin_handler_v1@PLT
	movq	%rax, %rsi
	movl	$0, %edx
	movq	%rbx, %rdi
	call	__gnat_end_handler_v1@PLT
.LEHE82:
	movl	$1, %ebx
	jmp	.L236
	.cfi_endproc
.LFE4:
	.section	.gcc_except_table.main__univ__init__B879b___finalizer.56,"a",@progbits
	.align 4
.LLSDA4:
	.byte	0xff
	.byte	0x9b
	.uleb128 .LLSDATT4-.LLSDATTD4
.LLSDATTD4:
	.byte	0x1
	.uleb128 .LLSDACSE4-.LLSDACSB4
.LLSDACSB4:
	.uleb128 .LEHB80-.LFB4
	.uleb128 .LEHE80-.LEHB80
	.uleb128 0
	.uleb128 0
	.uleb128 .LEHB81-.LFB4
	.uleb128 .LEHE81-.LEHB81
	.uleb128 .L237-.LFB4
	.uleb128 0x1
	.uleb128 .LEHB82-.LFB4
	.uleb128 .LEHE82-.LEHB82
	.uleb128 0
	.uleb128 0
.LLSDACSE4:
	.byte	0x1
	.byte	0
	.align 4
	.long	DW.ref.__gnat_others_value-.
.LLSDATT4:
	.section	.text.main__univ__init__B879b___finalizer.56
	.size	main__univ__init__B879b___finalizer.56, .-main__univ__init__B879b___finalizer.56
	.section	.text.main__univ__add_item___finalizer.60,"ax",@progbits
	.align 2
	.type	main__univ__add_item___finalizer.60, @function
main__univ__add_item___finalizer.60:
.LFB7:
	.cfi_startproc
	.cfi_personality 0x9b,DW.ref.__gnat_personality_v0
	.cfi_lsda 0x1b,.LLSDA7
	pushq	%r14
	.cfi_def_cfa_offset 16
	.cfi_offset 14, -16
	pushq	%rbx
	.cfi_def_cfa_offset 24
	.cfi_offset 3, -24
.LEHB83:
	subq	$8, %rsp
	.cfi_def_cfa_offset 32
	movq	%r10, %rbx
	call	ada__exceptions__triggered_by_abort@PLT
	movl	%eax, %r14d
	call	*system__soft_links__abort_defer(%rip)
.LEHE83:
	leaq	main__univ__universe_itemFD.59(%rip), %rsi
	movq	%rbx, %rdi
.LEHB84:
	call	system__finalization_primitives__finalize_object@PLT
.LEHE84:
	movl	$0, %ebx
.L244:
.LEHB85:
	call	*system__soft_links__abort_undefer(%rip)
	movl	%r14d, %eax
	xorl	$1, %eax
	testb	%al, %bl
	jne	.L247
	addq	$8, %rsp
	.cfi_remember_state
	.cfi_def_cfa_offset 24
	popq	%rbx
	.cfi_def_cfa_offset 16
	popq	%r14
	.cfi_def_cfa_offset 8
	ret
.L247:
	.cfi_restore_state
	movl	$21, %esi
	leaq	.LC69(%rip), %rdi
	call	__gnat_rcheck_PE_Finalize_Raised_Exception@PLT
.L245:
	movq	%rax, %rdi
	cmpq	$1, %rdx
	je	.L243
	call	_Unwind_Resume@PLT
.L243:
	movq	%rax, %rbx
	movq	%rax, %rdi
	call	__gnat_begin_handler_v1@PLT
	movq	%rax, %rsi
	movl	$0, %edx
	movq	%rbx, %rdi
	call	__gnat_end_handler_v1@PLT
.LEHE85:
	movl	$1, %ebx
	jmp	.L244
	.cfi_endproc
.LFE7:
	.section	.gcc_except_table.main__univ__add_item___finalizer.60,"a",@progbits
	.align 4
.LLSDA7:
	.byte	0xff
	.byte	0x9b
	.uleb128 .LLSDATT7-.LLSDATTD7
.LLSDATTD7:
	.byte	0x1
	.uleb128 .LLSDACSE7-.LLSDACSB7
.LLSDACSB7:
	.uleb128 .LEHB83-.LFB7
	.uleb128 .LEHE83-.LEHB83
	.uleb128 0
	.uleb128 0
	.uleb128 .LEHB84-.LFB7
	.uleb128 .LEHE84-.LEHB84
	.uleb128 .L245-.LFB7
	.uleb128 0x1
	.uleb128 .LEHB85-.LFB7
	.uleb128 .LEHE85-.LEHB85
	.uleb128 0
	.uleb128 0
.LLSDACSE7:
	.byte	0x1
	.byte	0
	.align 4
	.long	DW.ref.__gnat_others_value-.
.LLSDATT7:
	.section	.text.main__univ__add_item___finalizer.60
	.size	main__univ__add_item___finalizer.60, .-main__univ__add_item___finalizer.60
	.section	.rodata
.LC71:
	.ascii	"display.adb"
	.zero	1
	.section	.text.main__disp__capture__L_1__B1467b___finalizer.66,"ax",@progbits
	.align 2
	.type	main__disp__capture__L_1__B1467b___finalizer.66, @function
main__disp__capture__L_1__B1467b___finalizer.66:
.LFB50:
	.cfi_startproc
	.cfi_personality 0x9b,DW.ref.__gnat_personality_v0
	.cfi_lsda 0x1b,.LLSDA50
	pushq	%r14
	.cfi_def_cfa_offset 16
	.cfi_offset 14, -16
	pushq	%rbx
	.cfi_def_cfa_offset 24
	.cfi_offset 3, -24
.LEHB86:
	subq	$8, %rsp
	.cfi_def_cfa_offset 32
	movq	%r10, %rbx
	call	ada__exceptions__triggered_by_abort@PLT
	movl	%eax, %r14d
	call	*system__soft_links__abort_defer(%rip)
.LEHE86:
	addq	$48, %rbx
	movq	%rbx, %rdi
	movq	spatial__positionFD@GOTPCREL(%rip), %rsi
.LEHB87:
	call	system__finalization_primitives__finalize_object@PLT
.LEHE87:
	movl	$0, %ebx
.L252:
.LEHB88:
	call	*system__soft_links__abort_undefer(%rip)
	movl	%r14d, %eax
	xorl	$1, %eax
	testb	%al, %bl
	jne	.L255
	addq	$8, %rsp
	.cfi_remember_state
	.cfi_def_cfa_offset 24
	popq	%rbx
	.cfi_def_cfa_offset 16
	popq	%r14
	.cfi_def_cfa_offset 8
	ret
.L255:
	.cfi_restore_state
	movl	$48, %esi
	leaq	.LC71(%rip), %rdi
	call	__gnat_rcheck_PE_Finalize_Raised_Exception@PLT
.L253:
	movq	%rax, %rdi
	cmpq	$1, %rdx
	je	.L251
	call	_Unwind_Resume@PLT
.L251:
	movq	%rax, %rbx
	movq	%rax, %rdi
	call	__gnat_begin_handler_v1@PLT
	movq	%rax, %rsi
	movl	$0, %edx
	movq	%rbx, %rdi
	call	__gnat_end_handler_v1@PLT
.LEHE88:
	movl	$1, %ebx
	jmp	.L252
	.cfi_endproc
.LFE50:
	.section	.gcc_except_table.main__disp__capture__L_1__B1467b___finalizer.66,"a",@progbits
	.align 4
.LLSDA50:
	.byte	0xff
	.byte	0x9b
	.uleb128 .LLSDATT50-.LLSDATTD50
.LLSDATTD50:
	.byte	0x1
	.uleb128 .LLSDACSE50-.LLSDACSB50
.LLSDACSB50:
	.uleb128 .LEHB86-.LFB50
	.uleb128 .LEHE86-.LEHB86
	.uleb128 0
	.uleb128 0
	.uleb128 .LEHB87-.LFB50
	.uleb128 .LEHE87-.LEHB87
	.uleb128 .L253-.LFB50
	.uleb128 0x1
	.uleb128 .LEHB88-.LFB50
	.uleb128 .LEHE88-.LEHB88
	.uleb128 0
	.uleb128 0
.LLSDACSE50:
	.byte	0x1
	.byte	0
	.align 4
	.long	DW.ref.__gnat_others_value-.
.LLSDATT50:
	.section	.text.main__disp__capture__L_1__B1467b___finalizer.66
	.size	main__disp__capture__L_1__B1467b___finalizer.66, .-main__disp__capture__L_1__B1467b___finalizer.66
	.section	.text.main__univ__universeDF.72,"ax",@progbits
	.align 2
	.type	main__univ__universeDF.72, @function
main__univ__universeDF.72:
.LFB70:
	.cfi_startproc
	.cfi_personality 0x9b,DW.ref.__gnat_personality_v0
	.cfi_lsda 0x1b,.LLSDA70
	pushq	%r14
	.cfi_def_cfa_offset 16
	.cfi_offset 14, -16
	pushq	%rbx
	.cfi_def_cfa_offset 24
	.cfi_offset 3, -24
.LEHB89:
	subq	$8, %rsp
	.cfi_def_cfa_offset 32
	movq	%rdi, %rbx
	call	ada__exceptions__triggered_by_abort@PLT
.LEHE89:
	movl	%eax, %r14d
	movq	%rbx, %rdi
	movl	$1, %edx
	leaq	.LC8(%rip), %rsi
.LEHB90:
	call	main__univ__TitemarrayBDF.17
.LEHE90:
	movl	$0, %eax
.L260:
	movl	%r14d, %edx
	xorl	$1, %edx
	testb	%al, %dl
	jne	.L263
.LEHB91:
	addq	$8, %rsp
	.cfi_remember_state
	.cfi_def_cfa_offset 24
	popq	%rbx
	.cfi_def_cfa_offset 16
	popq	%r14
	.cfi_def_cfa_offset 8
	ret
.L263:
	.cfi_restore_state
	movl	$106, %esi
	leaq	.LC66(%rip), %rdi
	call	__gnat_rcheck_PE_Finalize_Raised_Exception@PLT
.L261:
	movq	%rax, %rdi
	cmpq	$1, %rdx
	je	.L259
	call	_Unwind_Resume@PLT
.L259:
	movq	%rax, %rbx
	movq	%rax, %rdi
	call	__gnat_begin_handler_v1@PLT
	movq	%rax, %rsi
	movl	$0, %edx
	movq	%rbx, %rdi
	call	__gnat_end_handler_v1@PLT
.LEHE91:
	movl	$1, %eax
	jmp	.L260
	.cfi_endproc
.LFE70:
	.section	.gcc_except_table.main__univ__universeDF.72,"a",@progbits
	.align 4
.LLSDA70:
	.byte	0xff
	.byte	0x9b
	.uleb128 .LLSDATT70-.LLSDATTD70
.LLSDATTD70:
	.byte	0x1
	.uleb128 .LLSDACSE70-.LLSDACSB70
.LLSDACSB70:
	.uleb128 .LEHB89-.LFB70
	.uleb128 .LEHE89-.LEHB89
	.uleb128 0
	.uleb128 0
	.uleb128 .LEHB90-.LFB70
	.uleb128 .LEHE90-.LEHB90
	.uleb128 .L261-.LFB70
	.uleb128 0x1
	.uleb128 .LEHB91-.LFB70
	.uleb128 .LEHE91-.LEHB91
	.uleb128 0
	.uleb128 0
.LLSDACSE70:
	.byte	0x1
	.byte	0
	.align 4
	.long	DW.ref.__gnat_others_value-.
.LLSDATT70:
	.section	.text.main__univ__universeDF.72
	.size	main__univ__universeDF.72, .-main__univ__universeDF.72
	.section	.text.main__univ__universeFD.6,"ax",@progbits
	.align 2
	.type	main__univ__universeFD.6, @function
main__univ__universeFD.6:
.LFB71:
	.cfi_startproc
	subq	$8, %rsp
	.cfi_def_cfa_offset 16
	movl	$1, %esi
	call	main__univ__universeDF.72
	addq	$8, %rsp
	.cfi_def_cfa_offset 8
	ret
	.cfi_endproc
.LFE71:
	.size	main__univ__universeFD.6, .-main__univ__universeFD.6
	.section	.text.main__univ__universe_itemIP.11,"ax",@progbits
	.align 2
	.type	main__univ__universe_itemIP.11, @function
main__univ__universe_itemIP.11:
.LFB60:
	.cfi_startproc
	.cfi_personality 0x9b,DW.ref.__gnat_personality_v0
	.cfi_lsda 0x1b,.LLSDA60
	pushq	%r14
	.cfi_def_cfa_offset 16
	.cfi_offset 14, -16
	pushq	%rbp
	.cfi_def_cfa_offset 24
	.cfi_offset 6, -24
	pushq	%rbx
	.cfi_def_cfa_offset 32
	.cfi_offset 3, -32
.LEHB92:
	subq	$16, %rsp
	.cfi_def_cfa_offset 48
.LEHE92:
	movq	%rdi, %rbx
	leaq	48(%rsp), %rax
	movq	%rax, 8(%rsp)
	movl	$0, (%rsp)
.LEHB93:
	call	vector__vectorIP@PLT
	movq	%rbx, %rdi
	call	spatial__positionDI@PLT
	movl	(%rsp), %eax
	cmpl	$2147483647, %eax
	je	.L277
	addl	$1, %eax
	movl	%eax, (%rsp)
	leaq	64(%rbx), %rbp
	movq	%rbp, %rdi
	call	vector__vectorIP@PLT
	jmp	.L278
.L277:
	movl	$99, %esi
	leaq	.LC66(%rip), %rdi
	call	__gnat_rcheck_CE_Overflow_Check@PLT
.LEHE93:
.L273:
	movq	%rax, %rbp
	cmpq	$1, %rdx
	je	.L271
	movq	%rax, %rdi
.LEHB94:
	call	_Unwind_Resume@PLT
.LEHE94:
.L278:
	movq	%rbp, %rdi
.LEHB95:
	call	spatial__velocityDI@PLT
	movl	(%rsp), %eax
	cmpl	$2147483647, %eax
	je	.L279
	addl	$1, %eax
	movl	%eax, (%rsp)
	leaq	128(%rbx), %rbp
	movq	%rbp, %rdi
	call	ada__numerics__big_numbers__big_reals__big_realIP@PLT
	jmp	.L280
.L279:
	movl	$100, %esi
	leaq	.LC66(%rip), %rdi
	call	__gnat_rcheck_CE_Overflow_Check@PLT
.L280:
	movq	%rbp, %rdi
	call	ada__numerics__big_numbers__big_reals__big_realDI@PLT
.LEHE95:
	movl	(%rsp), %eax
	cmpl	$2147483647, %eax
	je	.L281
	addl	$1, %eax
	movl	%eax, (%rsp)
.LEHB96:
	addq	$16, %rsp
	.cfi_remember_state
	.cfi_def_cfa_offset 32
.LEHE96:
	popq	%rbx
	.cfi_def_cfa_offset 24
	popq	%rbp
	.cfi_def_cfa_offset 16
	popq	%r14
	.cfi_def_cfa_offset 8
	ret
.L281:
	.cfi_restore_state
	movl	$101, %esi
	leaq	.LC66(%rip), %rdi
.LEHB97:
	call	__gnat_rcheck_CE_Overflow_Check@PLT
.LEHE97:
.L271:
	movq	%rax, %rdi
	call	__gnat_begin_handler_v1@PLT
	movq	%rax, %r14
	movq	%rsp, %r10
	movl	$0, %esi
	movq	%rbx, %rdi
.LEHB98:
	call	main__univ__universe_itemIP___finalizer.12
	movq	%rbp, %rdi
	call	__gnat_reraise_zcx@PLT
.LEHE98:
.L274:
	movq	%rax, %rbx
	movq	%rax, %rdx
	movq	%r14, %rsi
	movq	%rbp, %rdi
.LEHB99:
	call	__gnat_end_handler_v1@PLT
	movq	%rbx, %rdi
	call	_Unwind_Resume@PLT
.LEHE99:
	.cfi_endproc
.LFE60:
	.section	.gcc_except_table.main__univ__universe_itemIP.11,"a",@progbits
	.align 4
.LLSDA60:
	.byte	0xff
	.byte	0x9b
	.uleb128 .LLSDATT60-.LLSDATTD60
.LLSDATTD60:
	.byte	0x1
	.uleb128 .LLSDACSE60-.LLSDACSB60
.LLSDACSB60:
	.uleb128 .LEHB92-.LFB60
	.uleb128 .LEHE92-.LEHB92
	.uleb128 0
	.uleb128 0
	.uleb128 .LEHB93-.LFB60
	.uleb128 .LEHE93-.LEHB93
	.uleb128 .L273-.LFB60
	.uleb128 0x1
	.uleb128 .LEHB94-.LFB60
	.uleb128 .LEHE94-.LEHB94
	.uleb128 0
	.uleb128 0
	.uleb128 .LEHB95-.LFB60
	.uleb128 .LEHE95-.LEHB95
	.uleb128 .L273-.LFB60
	.uleb128 0x1
	.uleb128 .LEHB96-.LFB60
	.uleb128 .LEHE96-.LEHB96
	.uleb128 0
	.uleb128 0
	.uleb128 .LEHB97-.LFB60
	.uleb128 .LEHE97-.LEHB97
	.uleb128 .L273-.LFB60
	.uleb128 0x1
	.uleb128 .LEHB98-.LFB60
	.uleb128 .LEHE98-.LEHB98
	.uleb128 .L274-.LFB60
	.uleb128 0
	.uleb128 .LEHB99-.LFB60
	.uleb128 .LEHE99-.LEHB99
	.uleb128 0
	.uleb128 0
.LLSDACSE60:
	.byte	0x1
	.byte	0
	.align 4
	.long	DW.ref.__gnat_others_value-.
.LLSDATT60:
	.section	.text.main__univ__universe_itemIP.11
	.size	main__univ__universe_itemIP.11, .-main__univ__universe_itemIP.11
	.section	.text.main__univ__TitemarrayBIP.10,"ax",@progbits
	.align 2
	.type	main__univ__TitemarrayBIP.10, @function
main__univ__TitemarrayBIP.10:
.LFB62:
	.cfi_startproc
	pushq	%r13
	.cfi_def_cfa_offset 16
	.cfi_offset 13, -16
	pushq	%r12
	.cfi_def_cfa_offset 24
	.cfi_offset 12, -24
	pushq	%rbp
	.cfi_def_cfa_offset 32
	.cfi_offset 6, -32
	pushq	%rbx
	.cfi_def_cfa_offset 40
	.cfi_offset 3, -40
	subq	$8, %rsp
	.cfi_def_cfa_offset 48
	movq	%rdi, %r12
	movq	%rsi, %rbp
	movl	(%rsi), %ebx
	movslq	%ebx, %r13
.L284:
	cmpl	%ebx, 4(%rbp)
	jl	.L282
	movslq	%ebx, %rax
	subq	%r13, %rax
	leaq	(%rax,%rax,4), %rdi
	salq	$5, %rdi
	addq	%r12, %rdi
	call	main__univ__universe_itemIP.11
	addl	$1, %ebx
	jmp	.L284
.L282:
	addq	$8, %rsp
	.cfi_def_cfa_offset 40
	popq	%rbx
	.cfi_def_cfa_offset 32
	popq	%rbp
	.cfi_def_cfa_offset 24
	popq	%r12
	.cfi_def_cfa_offset 16
	popq	%r13
	.cfi_def_cfa_offset 8
	ret
	.cfi_endproc
.LFE62:
	.size	main__univ__TitemarrayBIP.10, .-main__univ__TitemarrayBIP.10
	.section	.text.main__univ__universeIP.9,"ax",@progbits
	.align 2
	.type	main__univ__universeIP.9, @function
main__univ__universeIP.9:
.LFB72:
	.cfi_startproc
	.cfi_personality 0x9b,DW.ref.__gnat_personality_v0
	.cfi_lsda 0x1b,.LLSDA72
	pushq	%r15
	.cfi_def_cfa_offset 16
	.cfi_offset 15, -16
	pushq	%r14
	.cfi_def_cfa_offset 24
	.cfi_offset 14, -24
	pushq	%rbx
	.cfi_def_cfa_offset 32
	.cfi_offset 3, -32
.LEHB100:
	subq	$16, %rsp
	.cfi_def_cfa_offset 48
.LEHE100:
	movq	%rdi, %rbx
	leaq	48(%rsp), %rcx
	movq	%rcx, 8(%rsp)
	movl	$0, (%rsp)
	leaq	.LC8(%rip), %rsi
.LEHB101:
	call	main__univ__TitemarrayBIP.10
.LEHE101:
	movl	(%rsp), %eax
	cmpl	$2147483647, %eax
	je	.L295
	addl	$1, %eax
	movl	%eax, (%rsp)
.LEHB102:
	addq	$16, %rsp
	.cfi_remember_state
	.cfi_def_cfa_offset 32
.LEHE102:
	popq	%rbx
	.cfi_def_cfa_offset 24
	popq	%r14
	.cfi_def_cfa_offset 16
	popq	%r15
	.cfi_def_cfa_offset 8
	ret
.L295:
	.cfi_restore_state
	movl	$107, %esi
	leaq	.LC66(%rip), %rdi
.LEHB103:
	call	__gnat_rcheck_CE_Overflow_Check@PLT
.LEHE103:
.L291:
	movq	%rax, %r14
	cmpq	$1, %rdx
	je	.L289
	movq	%rax, %rdi
.LEHB104:
	call	_Unwind_Resume@PLT
.LEHE104:
.L289:
	movq	%rax, %rdi
	call	__gnat_begin_handler_v1@PLT
	movq	%rax, %r15
	movq	%rsp, %r10
	movl	$0, %esi
	movq	%rbx, %rdi
.LEHB105:
	call	main__univ__universeIP___finalizer.16
	movq	%r14, %rdi
	call	__gnat_reraise_zcx@PLT
.LEHE105:
.L292:
	movq	%rax, %rbx
	movq	%rax, %rdx
	movq	%r15, %rsi
	movq	%r14, %rdi
.LEHB106:
	call	__gnat_end_handler_v1@PLT
	movq	%rbx, %rdi
	call	_Unwind_Resume@PLT
.LEHE106:
	.cfi_endproc
.LFE72:
	.section	.gcc_except_table.main__univ__universeIP.9,"a",@progbits
	.align 4
.LLSDA72:
	.byte	0xff
	.byte	0x9b
	.uleb128 .LLSDATT72-.LLSDATTD72
.LLSDATTD72:
	.byte	0x1
	.uleb128 .LLSDACSE72-.LLSDACSB72
.LLSDACSB72:
	.uleb128 .LEHB100-.LFB72
	.uleb128 .LEHE100-.LEHB100
	.uleb128 0
	.uleb128 0
	.uleb128 .LEHB101-.LFB72
	.uleb128 .LEHE101-.LEHB101
	.uleb128 .L291-.LFB72
	.uleb128 0x1
	.uleb128 .LEHB102-.LFB72
	.uleb128 .LEHE102-.LEHB102
	.uleb128 0
	.uleb128 0
	.uleb128 .LEHB103-.LFB72
	.uleb128 .LEHE103-.LEHB103
	.uleb128 .L291-.LFB72
	.uleb128 0x1
	.uleb128 .LEHB104-.LFB72
	.uleb128 .LEHE104-.LEHB104
	.uleb128 0
	.uleb128 0
	.uleb128 .LEHB105-.LFB72
	.uleb128 .LEHE105-.LEHB105
	.uleb128 .L292-.LFB72
	.uleb128 0
	.uleb128 .LEHB106-.LFB72
	.uleb128 .LEHE106-.LEHB106
	.uleb128 0
	.uleb128 0
.LLSDACSE72:
	.byte	0x1
	.byte	0
	.align 4
	.long	DW.ref.__gnat_others_value-.
.LLSDATT72:
	.section	.text.main__univ__universeIP.9
	.size	main__univ__universeIP.9, .-main__univ__universeIP.9
	.section	.text.main__fc__conv__to_big_integerXn.20,"ax",@progbits
	.align 2
	.type	main__fc__conv__to_big_integerXn.20, @function
main__fc__conv__to_big_integerXn.20:
.LVL27:
.LFB17:
	.file 2 "/home/vscode/.local/libexec/spark/lib/gcc/x86_64-pc-linux-gnu/15.1.0/adainclude/a-nbnbin.adb"
	.loc 2 205 7 is_stmt 1 view -0
	.cfi_startproc
	.cfi_personality 0x9b,DW.ref.__gnat_personality_v0
	.cfi_lsda 0x1b,.LLSDA17
	.loc 2 205 7 is_stmt 0 view .LVU36
	pushq	%r15
	.cfi_def_cfa_offset 16
	.cfi_offset 15, -16
	pushq	%r14
	.cfi_def_cfa_offset 24
	.cfi_offset 14, -24
	pushq	%rbx
	.cfi_def_cfa_offset 32
	.cfi_offset 3, -32
.LEHB107:
	subq	$48, %rsp
	.cfi_def_cfa_offset 80
.LEHE107:
	movq	%rdi, %rbx
	movq	%rsi, %r14
	.loc 2 205 7 is_stmt 1 discriminator 1 view .LVU37
	leaq	80(%rsp), %rax
	movq	%rax, 24(%rsp)
.LVL28:
	.loc 2 205 7 is_stmt 0 discriminator 1 view .LVU38
	movq	$0, (%rsp)
	movq	$0, 8(%rsp)
	movq	$0, 16(%rsp)
.LVL29:
.LEHB108:
	.loc 2 206 10 is_stmt 1 view .LVU39
	call	*system__soft_links__abort_defer(%rip)
.LVL30:
	.loc 2 206 10 is_stmt 0 discriminator 3 view .LVU40
	leaq	32(%rsp), %rdi
	call	ada__numerics__big_numbers__big_integers__big_integerIP@PLT
.LVL31:
.LEHE108:
.LBB514:
	.loc 2 206 10 discriminator 6 view .LVU41
	leaq	32(%rsp), %rdi
.LEHB109:
	call	ada__numerics__big_numbers__big_integers__big_integerDI@PLT
.LVL32:
	.loc 2 206 10 discriminator 9 view .LVU42
	movq	%rsp, %rdx
	leaq	32(%rsp), %rdi
	movq	ada__numerics__big_numbers__big_integers__big_integerFD@GOTPCREL(%rip), %rsi
	call	system__finalization_primitives__attach_object_to_node@PLT
.LVL33:
.LEHE109:
.LEHB110:
.LBE514:
	.loc 2 206 0 is_stmt 1 discriminator 12 view .LVU43
	call	system__standard_library__abort_undefer_direct@PLT
.LVL34:
	.loc 2 208 10 view .LVU44
	movq	%r14, %rdi
	movl	$0, %esi
	call	ada__numerics__big_numbers__big_integers__bignums__to_bignum__5Xnnn@PLT
.LVL35:
.LBB515:
.LBB516:
	.loc 2 92 19 view .LVU45
	movq	%rax, 40(%rsp)
.LVL36:
	.loc 2 92 19 is_stmt 0 view .LVU46
.LBE516:
.LBE515:
	.loc 2 209 10 is_stmt 1 view .LVU47
	movdqa	32(%rsp), %xmm0
	movups	%xmm0, (%rbx)
	movl	$1, %esi
	movq	%rbx, %rdi
	call	ada__numerics__big_numbers__big_integers__big_integerDA@PLT
.LVL37:
	jmp	.L309
.L304:
	.loc 2 206 10 discriminator 11 view .LVU48
	movq	%rax, %r14
.LVL38:
	.loc 2 206 10 is_stmt 0 discriminator 11 view .LVU49
	cmpq	$1, %rdx
	je	.L298
	movq	%rax, %rbx
.LVL39:
.L299:
	.loc 2 206 0 is_stmt 1 discriminator 24 view .LVU50
	call	system__standard_library__abort_undefer_direct@PLT
.LVL40:
.LEHE110:
	jmp	.L301
.LVL41:
.L298:
.LBB517:
	.loc 2 206 10 discriminator 15 view .LVU51
	movq	%rax, %rdi
	call	__gnat_begin_handler_v1@PLT
.LVL42:
	.loc 2 206 10 is_stmt 0 discriminator 15 view .LVU52
	movq	%rax, %r15
.LVL43:
	.loc 2 206 10 discriminator 16 view .LVU53
	leaq	32(%rsp), %rdi
	movl	$0, %esi
.LEHB111:
	call	ada__numerics__big_numbers__big_integers__big_integerDF@PLT
.LVL44:
	.loc 2 206 10 discriminator 19 view .LVU54
	movq	%r14, %rdi
	call	__gnat_reraise_zcx@PLT
.LVL45:
.LEHE111:
.L305:
	.loc 2 206 10 discriminator 21 view .LVU55
	movq	%rax, %rbx
.LVL46:
	.loc 2 206 10 discriminator 22 view .LVU56
	movq	%rax, %rdx
	movq	%r15, %rsi
	movq	%r14, %rdi
.LEHB112:
	call	__gnat_end_handler_v1@PLT
.LVL47:
.LEHE112:
	.loc 2 206 10 discriminator 22 view .LVU57
	jmp	.L299
.LVL48:
.L303:
	.loc 2 206 10 discriminator 22 view .LVU58
.LBE517:
	.loc 2 206 0 is_stmt 1 discriminator 24 view .LVU59
	movq	%rax, %rbx
	jmp	.L299
.L302:
	.loc 2 210 0 discriminator 4 view .LVU60
	movq	%rax, %rbx
.L301:
	movq	%rsp, %r10
.LEHB113:
	call	main__fc__conv__to_big_integer___finalizer.21
.LVL49:
	movq	%rbx, %rdi
	call	_Unwind_Resume@PLT
.LVL50:
.L309:
	.loc 2 210 0 is_stmt 0 view .LVU61
	movq	%rsp, %r10
	call	main__fc__conv__to_big_integer___finalizer.21
.LVL51:
	.loc 2 210 11 is_stmt 1 view .LVU62
	movq	%rbx, %rax
	addq	$48, %rsp
	.cfi_def_cfa_offset 32
.LEHE113:
	popq	%rbx
	.cfi_def_cfa_offset 24
.LVL52:
	.loc 2 210 11 is_stmt 0 view .LVU63
	popq	%r14
	.cfi_def_cfa_offset 16
.LVL53:
	.loc 2 210 11 view .LVU64
	popq	%r15
	.cfi_def_cfa_offset 8
	ret
	.cfi_endproc
.LFE17:
	.section	.gcc_except_table.main__fc__conv__to_big_integerXn.20,"a",@progbits
	.align 4
.LLSDA17:
	.byte	0xff
	.byte	0x9b
	.uleb128 .LLSDATT17-.LLSDATTD17
.LLSDATTD17:
	.byte	0x1
	.uleb128 .LLSDACSE17-.LLSDACSB17
.LLSDACSB17:
	.uleb128 .LEHB107-.LFB17
	.uleb128 .LEHE107-.LEHB107
	.uleb128 0
	.uleb128 0
	.uleb128 .LEHB108-.LFB17
	.uleb128 .LEHE108-.LEHB108
	.uleb128 .L303-.LFB17
	.uleb128 0
	.uleb128 .LEHB109-.LFB17
	.uleb128 .LEHE109-.LEHB109
	.uleb128 .L304-.LFB17
	.uleb128 0x3
	.uleb128 .LEHB110-.LFB17
	.uleb128 .LEHE110-.LEHB110
	.uleb128 .L302-.LFB17
	.uleb128 0
	.uleb128 .LEHB111-.LFB17
	.uleb128 .LEHE111-.LEHB111
	.uleb128 .L305-.LFB17
	.uleb128 0
	.uleb128 .LEHB112-.LFB17
	.uleb128 .LEHE112-.LEHB112
	.uleb128 .L303-.LFB17
	.uleb128 0
	.uleb128 .LEHB113-.LFB17
	.uleb128 .LEHE113-.LEHB113
	.uleb128 0
	.uleb128 0
.LLSDACSE17:
	.byte	0
	.byte	0
	.byte	0x1
	.byte	0x7d
	.align 4
	.long	DW.ref.__gnat_others_value-.
.LLSDATT17:
	.section	.text.main__fc__conv__to_big_integerXn.20
	.size	main__fc__conv__to_big_integerXn.20, .-main__fc__conv__to_big_integerXn.20
	.section	.text.main__fc__to_big_real__B1116b___finalizer.24,"ax",@progbits
	.align 2
	.type	main__fc__to_big_real__B1116b___finalizer.24, @function
main__fc__to_big_real__B1116b___finalizer.24:
.LFB22:
	.cfi_startproc
	.cfi_personality 0x9b,DW.ref.__gnat_personality_v0
	.cfi_lsda 0x1b,.LLSDA22
	pushq	%r14
	.cfi_def_cfa_offset 16
	.cfi_offset 14, -16
	pushq	%rbx
	.cfi_def_cfa_offset 24
	.cfi_offset 3, -24
.LEHB114:
	subq	$8, %rsp
	.cfi_def_cfa_offset 32
	movq	%r10, %rbx
	call	ada__exceptions__triggered_by_abort@PLT
	movl	%eax, %r14d
	call	*system__soft_links__abort_defer(%rip)
.LEHE114:
	addq	$104, %rbx
	movq	%rbx, %rdi
.LEHB115:
	call	system__finalization_primitives__finalize_master@PLT
.LEHE115:
	movl	$0, %ebx
.L314:
.LEHB116:
	call	*system__soft_links__abort_undefer(%rip)
	movl	%r14d, %eax
	xorl	$1, %eax
	testb	%al, %bl
	jne	.L317
	addq	$8, %rsp
	.cfi_remember_state
	.cfi_def_cfa_offset 24
	popq	%rbx
	.cfi_def_cfa_offset 16
	popq	%r14
	.cfi_def_cfa_offset 8
	ret
.L317:
	.cfi_restore_state
	movl	$154, %esi
	leaq	.LC68(%rip), %rdi
	call	__gnat_rcheck_PE_Finalize_Raised_Exception@PLT
.L315:
	movq	%rax, %rdi
	cmpq	$1, %rdx
	je	.L313
	call	_Unwind_Resume@PLT
.L313:
	movq	%rax, %rbx
	movq	%rax, %rdi
	call	__gnat_begin_handler_v1@PLT
	movq	%rax, %rsi
	movl	$0, %edx
	movq	%rbx, %rdi
	call	__gnat_end_handler_v1@PLT
.LEHE116:
	movl	$1, %ebx
	jmp	.L314
	.cfi_endproc
.LFE22:
	.section	.gcc_except_table.main__fc__to_big_real__B1116b___finalizer.24,"a",@progbits
	.align 4
.LLSDA22:
	.byte	0xff
	.byte	0x9b
	.uleb128 .LLSDATT22-.LLSDATTD22
.LLSDATTD22:
	.byte	0x1
	.uleb128 .LLSDACSE22-.LLSDACSB22
.LLSDACSB22:
	.uleb128 .LEHB114-.LFB22
	.uleb128 .LEHE114-.LEHB114
	.uleb128 0
	.uleb128 0
	.uleb128 .LEHB115-.LFB22
	.uleb128 .LEHE115-.LEHB115
	.uleb128 .L315-.LFB22
	.uleb128 0x1
	.uleb128 .LEHB116-.LFB22
	.uleb128 .LEHE116-.LEHB116
	.uleb128 0
	.uleb128 0
.LLSDACSE22:
	.byte	0x1
	.byte	0
	.align 4
	.long	DW.ref.__gnat_others_value-.
.LLSDATT22:
	.section	.text.main__fc__to_big_real__B1116b___finalizer.24
	.size	main__fc__to_big_real__B1116b___finalizer.24, .-main__fc__to_big_real__B1116b___finalizer.24
	.section	.text.main__fc__to_big_real__B1135b___finalizer.25,"ax",@progbits
	.align 2
	.type	main__fc__to_big_real__B1135b___finalizer.25, @function
main__fc__to_big_real__B1135b___finalizer.25:
.LFB23:
	.cfi_startproc
	.cfi_personality 0x9b,DW.ref.__gnat_personality_v0
	.cfi_lsda 0x1b,.LLSDA23
	pushq	%r14
	.cfi_def_cfa_offset 16
	.cfi_offset 14, -16
	pushq	%rbx
	.cfi_def_cfa_offset 24
	.cfi_offset 3, -24
.LEHB117:
	subq	$8, %rsp
	.cfi_def_cfa_offset 32
	movq	%r10, %rbx
	call	ada__exceptions__triggered_by_abort@PLT
	movl	%eax, %r14d
	call	*system__soft_links__abort_defer(%rip)
.LEHE117:
	addq	$88, %rbx
	movq	%rbx, %rdi
.LEHB118:
	call	system__finalization_primitives__finalize_master@PLT
.LEHE118:
	movl	$0, %ebx
.L322:
.LEHB119:
	call	*system__soft_links__abort_undefer(%rip)
	movl	%r14d, %eax
	xorl	$1, %eax
	testb	%al, %bl
	jne	.L325
	addq	$8, %rsp
	.cfi_remember_state
	.cfi_def_cfa_offset 24
	popq	%rbx
	.cfi_def_cfa_offset 16
	popq	%r14
	.cfi_def_cfa_offset 8
	ret
.L325:
	.cfi_restore_state
	movl	$159, %esi
	leaq	.LC68(%rip), %rdi
	call	__gnat_rcheck_PE_Finalize_Raised_Exception@PLT
.L323:
	movq	%rax, %rdi
	cmpq	$1, %rdx
	je	.L321
	call	_Unwind_Resume@PLT
.L321:
	movq	%rax, %rbx
	movq	%rax, %rdi
	call	__gnat_begin_handler_v1@PLT
	movq	%rax, %rsi
	movl	$0, %edx
	movq	%rbx, %rdi
	call	__gnat_end_handler_v1@PLT
.LEHE119:
	movl	$1, %ebx
	jmp	.L322
	.cfi_endproc
.LFE23:
	.section	.gcc_except_table.main__fc__to_big_real__B1135b___finalizer.25,"a",@progbits
	.align 4
.LLSDA23:
	.byte	0xff
	.byte	0x9b
	.uleb128 .LLSDATT23-.LLSDATTD23
.LLSDATTD23:
	.byte	0x1
	.uleb128 .LLSDACSE23-.LLSDACSB23
.LLSDACSB23:
	.uleb128 .LEHB117-.LFB23
	.uleb128 .LEHE117-.LEHB117
	.uleb128 0
	.uleb128 0
	.uleb128 .LEHB118-.LFB23
	.uleb128 .LEHE118-.LEHB118
	.uleb128 .L323-.LFB23
	.uleb128 0x1
	.uleb128 .LEHB119-.LFB23
	.uleb128 .LEHE119-.LEHB119
	.uleb128 0
	.uleb128 0
.LLSDACSE23:
	.byte	0x1
	.byte	0
	.align 4
	.long	DW.ref.__gnat_others_value-.
.LLSDATT23:
	.section	.text.main__fc__to_big_real__B1135b___finalizer.25
	.size	main__fc__to_big_real__B1135b___finalizer.25, .-main__fc__to_big_real__B1135b___finalizer.25
	.section	.text.main__fc__to_big_real___finalizer.29,"ax",@progbits
	.align 2
	.type	main__fc__to_big_real___finalizer.29, @function
main__fc__to_big_real___finalizer.29:
.LFB27:
	.cfi_startproc
	.cfi_personality 0x9b,DW.ref.__gnat_personality_v0
	.cfi_lsda 0x1b,.LLSDA27
	pushq	%r14
	.cfi_def_cfa_offset 16
	.cfi_offset 14, -16
	pushq	%rbx
	.cfi_def_cfa_offset 24
	.cfi_offset 3, -24
.LEHB120:
	subq	$8, %rsp
	.cfi_def_cfa_offset 32
	movq	%r10, %rbx
	call	ada__exceptions__triggered_by_abort@PLT
	movl	%eax, %r14d
	call	*system__soft_links__abort_defer(%rip)
.LEHE120:
	movq	%rbx, %rdi
.LEHB121:
	call	system__finalization_primitives__finalize_master@PLT
.LEHE121:
	movl	$0, %ebx
.L330:
.LEHB122:
	call	*system__soft_links__abort_undefer(%rip)
	movl	%r14d, %eax
	xorl	$1, %eax
	testb	%al, %bl
	jne	.L333
	addq	$8, %rsp
	.cfi_remember_state
	.cfi_def_cfa_offset 24
	popq	%rbx
	.cfi_def_cfa_offset 16
	popq	%r14
	.cfi_def_cfa_offset 8
	ret
.L333:
	.cfi_restore_state
	movl	$133, %esi
	leaq	.LC68(%rip), %rdi
	call	__gnat_rcheck_PE_Finalize_Raised_Exception@PLT
.L331:
	movq	%rax, %rdi
	cmpq	$1, %rdx
	je	.L329
	call	_Unwind_Resume@PLT
.L329:
	movq	%rax, %rbx
	movq	%rax, %rdi
	call	__gnat_begin_handler_v1@PLT
	movq	%rax, %rsi
	movl	$0, %edx
	movq	%rbx, %rdi
	call	__gnat_end_handler_v1@PLT
.LEHE122:
	movl	$1, %ebx
	jmp	.L330
	.cfi_endproc
.LFE27:
	.section	.gcc_except_table.main__fc__to_big_real___finalizer.29,"a",@progbits
	.align 4
.LLSDA27:
	.byte	0xff
	.byte	0x9b
	.uleb128 .LLSDATT27-.LLSDATTD27
.LLSDATTD27:
	.byte	0x1
	.uleb128 .LLSDACSE27-.LLSDACSB27
.LLSDACSB27:
	.uleb128 .LEHB120-.LFB27
	.uleb128 .LEHE120-.LEHB120
	.uleb128 0
	.uleb128 0
	.uleb128 .LEHB121-.LFB27
	.uleb128 .LEHE121-.LEHB121
	.uleb128 .L331-.LFB27
	.uleb128 0x1
	.uleb128 .LEHB122-.LFB27
	.uleb128 .LEHE122-.LEHB122
	.uleb128 0
	.uleb128 0
.LLSDACSE27:
	.byte	0x1
	.byte	0
	.align 4
	.long	DW.ref.__gnat_others_value-.
.LLSDATT27:
	.section	.text.main__fc__to_big_real___finalizer.29
	.size	main__fc__to_big_real___finalizer.29, .-main__fc__to_big_real___finalizer.29
	.section	.text.main__fc__to_big_real.19,"ax",@progbits
	.align 2
	.type	main__fc__to_big_real.19, @function
main__fc__to_big_real.19:
.LVL54:
.LFB20:
	.file 3 "/home/vscode/.local/libexec/spark/lib/gcc/x86_64-pc-linux-gnu/15.1.0/adainclude/a-nbnbre.adb"
	.loc 3 133 7 is_stmt 1 view -0
	.cfi_startproc
	.cfi_personality 0x9b,DW.ref.__gnat_personality_v0
	.cfi_lsda 0x1b,.LLSDA20
	.loc 3 133 7 is_stmt 0 view .LVU66
	pushq	%r12
	.cfi_def_cfa_offset 16
	.cfi_offset 12, -16
	pushq	%rbp
	.cfi_def_cfa_offset 24
	.cfi_offset 6, -24
	pushq	%rbx
	.cfi_def_cfa_offset 32
	.cfi_offset 3, -32
.LEHB123:
	subq	$1216, %rsp
	.cfi_def_cfa_offset 1248
.LEHE123:
	movq	%rdi, %rbp
	movss	%xmm0, 12(%rsp)
	.loc 3 133 7 is_stmt 1 discriminator 1 view .LVU67
	leaq	1248(%rsp), %rax
	movq	%rax, 160(%rsp)
.LVL55:
	.loc 3 133 7 is_stmt 0 discriminator 1 view .LVU68
	movb	$1, 16(%rsp)
	movb	$0, 17(%rsp)
	movb	$0, 18(%rsp)
	movq	$0, 24(%rsp)
.LVL56:
	.loc 3 135 39 is_stmt 1 view .LVU69
	leaq	12(%rsp), %rdi
.LVL57:
	.loc 3 135 39 is_stmt 0 view .LVU70
	movl	$0, %esi
.LEHB124:
	call	system__fat_flt__attr_float__valid@PLT
.LVL58:
	.loc 3 135 39 discriminator 2 view .LVU71
	testb	%al, %al
	je	.L432
	.loc 3 135 35 is_stmt 1 discriminator 4 view .LVU72
	movss	12(%rsp), %xmm0
	andps	.LC72(%rip), %xmm0
	movss	%xmm0, 848(%rsp)
	leaq	848(%rsp), %rdi
	movl	$0, %esi
	call	system__fat_flt__attr_float__valid@PLT
.LVL59:
	jmp	.L433
.L432:
	.loc 3 135 39 discriminator 3 view .LVU73
	movl	$135, %esi
	leaq	.LC68(%rip), %rdi
	call	__gnat_rcheck_CE_Invalid_Data@PLT
.LVL60:
.LEHE124:
.L396:
	.loc 3 169 0 discriminator 4 view .LVU74
	movq	%rax, %rbx
.L365:
	leaq	16(%rsp), %r10
.LEHB125:
	call	main__fc__to_big_real___finalizer.29
.LVL61:
	movq	%rbx, %rdi
	call	_Unwind_Resume@PLT
.LVL62:
.LEHE125:
.L433:
	.loc 3 135 35 discriminator 7 view .LVU75
	testb	%al, %al
	je	.L434
	.loc 3 135 10 discriminator 9 view .LVU76
	movss	12(%rsp), %xmm0
	andps	.LC72(%rip), %xmm0
	movd	%xmm0, %ebx
.LVL63:
.LEHB126:
	.loc 3 136 38 view .LVU77
	call	system__fat_flt__attr_float__exponent@PLT
.LVL64:
	jmp	.L435
.LVL65:
.L434:
	.loc 3 135 35 discriminator 8 view .LVU78
	movl	$135, %esi
	leaq	.LC68(%rip), %rdi
	call	__gnat_rcheck_CE_Invalid_Data@PLT
.LVL66:
.L435:
	.loc 3 136 38 view .LVU79
	movl	%eax, %r12d
.LVL67:
	.loc 3 137 38 view .LVU80
	movd	%ebx, %xmm0
	call	system__fat_flt__attr_float__fraction@PLT
.LVL68:
.LEHE126:
	.loc 3 137 38 is_stmt 0 view .LVU81
	movss	%xmm0, 8(%rsp)
.LVL69:
	.loc 3 140 10 is_stmt 1 view .LVU82
	movq	$0, 864(%rsp)
	movq	$0, 872(%rsp)
	movq	$0, 880(%rsp)
.LVL70:
.LEHB127:
	.loc 3 140 10 is_stmt 0 discriminator 2 view .LVU83
	call	*system__soft_links__abort_defer(%rip)
.LVL71:
	.loc 3 140 10 discriminator 5 view .LVU84
	leaq	832(%rsp), %rdi
	call	ada__numerics__big_numbers__big_integers__big_integerIP@PLT
.LVL72:
.LEHE127:
.LBB524:
	.loc 3 140 10 discriminator 8 view .LVU85
	leaq	832(%rsp), %rdi
.LEHB128:
	call	ada__numerics__big_numbers__big_integers__big_integerDI@PLT
.LVL73:
	.loc 3 140 10 discriminator 11 view .LVU86
	leaq	16(%rsp), %rcx
	leaq	864(%rsp), %rdx
	leaq	832(%rsp), %rdi
	movq	ada__numerics__big_numbers__big_integers__big_integerFD@GOTPCREL(%rip), %rsi
	call	system__finalization_primitives__attach_object_to_master@PLT
.LVL74:
.LEHE128:
.LEHB129:
.LBE524:
	.loc 3 140 0 is_stmt 1 discriminator 14 view .LVU87
	call	system__standard_library__abort_undefer_direct@PLT
.LVL75:
.LEHE129:
	.loc 3 140 10 view .LVU88
	movq	$0, 896(%rsp)
	movq	$0, 904(%rsp)
	movq	$0, 912(%rsp)
.LVL76:
.LEHB130:
	.loc 3 140 10 is_stmt 0 discriminator 17 view .LVU89
	call	*system__soft_links__abort_defer(%rip)
.LVL77:
	.loc 3 140 10 discriminator 20 view .LVU90
	leaq	816(%rsp), %rdi
	call	ada__numerics__big_numbers__big_integers__big_integerIP@PLT
.LVL78:
.LEHE130:
.LBB525:
	.loc 3 140 10 discriminator 23 view .LVU91
	leaq	816(%rsp), %rdi
.LEHB131:
	call	ada__numerics__big_numbers__big_integers__big_integerDI@PLT
.LVL79:
	.loc 3 140 10 discriminator 26 view .LVU92
	leaq	16(%rsp), %rcx
	leaq	896(%rsp), %rdx
	leaq	816(%rsp), %rdi
	movq	ada__numerics__big_numbers__big_integers__big_integerFD@GOTPCREL(%rip), %rsi
	call	system__finalization_primitives__attach_object_to_master@PLT
.LVL80:
.LEHE131:
.LEHB132:
.LBE525:
	.loc 3 140 0 is_stmt 1 discriminator 29 view .LVU93
	call	system__standard_library__abort_undefer_direct@PLT
.LVL81:
.LEHE132:
.LBB526:
	.loc 3 149 12 view .LVU94
	movq	$0, 136(%rsp)
	movq	$0, 144(%rsp)
	movq	$0, 152(%rsp)
.LVL82:
	.loc 3 149 58 discriminator 3 view .LVU95
	movss	8(%rsp), %xmm2
	mulss	.LC73(%rip), %xmm2
	movd	%xmm2, %ebx
.LVL83:
	.loc 3 149 58 is_stmt 0 discriminator 3 view .LVU96
	movss	%xmm2, 852(%rsp)
	leaq	852(%rsp), %rdi
	movl	$0, %esi
.LEHB133:
	call	system__fat_flt__attr_float__valid@PLT
.LVL84:
	.loc 3 149 58 discriminator 6 view .LVU97
	testb	%al, %al
	je	.L436
	.loc 3 149 58 discriminator 8 view .LVU98
	movd	%ebx, %xmm3
	ucomiss	.LC74(%rip), %xmm3
	jbe	.L338
	.loc 3 149 58 discriminator 12 view .LVU99
	movl	%ebx, 856(%rsp)
	leaq	856(%rsp), %rdi
	movl	$0, %esi
	call	system__fat_flt__attr_float__valid@PLT
.LVL85:
	jmp	.L437
.L436:
	.loc 3 149 58 discriminator 7 view .LVU100
	movl	$149, %esi
	leaq	.LC68(%rip), %rdi
	call	__gnat_rcheck_CE_Invalid_Data@PLT
.LVL86:
.LEHE133:
.L403:
	.loc 3 149 0 is_stmt 1 discriminator 57 view .LVU101
	movq	%rax, %rbx
.L374:
	leaq	16(%rsp), %r10
.LEHB134:
	call	main__fc__to_big_real__B1098b___finalizer.23
.LVL87:
.LEHE134:
	jmp	.L365
.LVL88:
.L437:
	.loc 3 149 58 discriminator 15 view .LVU102
	testb	%al, %al
	je	.L438
	.loc 3 149 58 is_stmt 0 discriminator 17 view .LVU103
	movss	.LC75(%rip), %xmm0
	movd	%ebx, %xmm4
	ucomiss	%xmm4, %xmm0
	jbe	.L338
	.loc 3 149 58 discriminator 21 view .LVU104
	movl	%ebx, 860(%rsp)
	leaq	860(%rsp), %rdi
	movl	$0, %esi
.LEHB135:
	call	system__fat_flt__attr_float__valid@PLT
.LVL89:
	jmp	.L439
.L438:
	.loc 3 149 58 discriminator 16 view .LVU105
	movl	$149, %esi
	leaq	.LC68(%rip), %rdi
	call	__gnat_rcheck_CE_Invalid_Data@PLT
.LVL90:
.L338:
	.loc 3 149 58 discriminator 20 view .LVU106
	movl	$149, %esi
	leaq	.LC68(%rip), %rdi
	call	__gnat_rcheck_CE_Overflow_Check@PLT
.LVL91:
.L439:
	.loc 3 149 58 discriminator 26 view .LVU107
	testb	%al, %al
	je	.L440
	.loc 3 149 19 is_stmt 1 discriminator 28 view .LVU108
	pxor	%xmm0, %xmm0
	movd	%ebx, %xmm5
	comiss	%xmm0, %xmm5
	jb	.L427
	.loc 3 149 36 discriminator 31 view .LVU109
	movd	%ebx, %xmm0
	addss	.LC77(%rip), %xmm0
	.loc 3 149 19 discriminator 31 view .LVU110
	comiss	.LC78(%rip), %xmm0
	jnb	.L345
	cvttss2siq	%xmm0, %rsi
.L347:
	.loc 3 149 19 is_stmt 0 discriminator 34 view .LVU111
	leaq	928(%rsp), %rdi
	call	main__fc__conv__to_big_integerXn.20
.LVL92:
	jmp	.L441
.L440:
	.loc 3 149 58 is_stmt 1 discriminator 27 view .LVU112
	movl	$149, %esi
	leaq	.LC68(%rip), %rdi
	call	__gnat_rcheck_CE_Invalid_Data@PLT
.LVL93:
.L345:
	.loc 3 149 19 discriminator 31 view .LVU113
	subss	.LC78(%rip), %xmm0
	cvttss2siq	%xmm0, %rsi
	btcq	$63, %rsi
	jmp	.L347
.L427:
	.loc 3 149 36 discriminator 32 view .LVU114
	movd	%ebx, %xmm0
	subss	.LC77(%rip), %xmm0
	.loc 3 149 19 discriminator 32 view .LVU115
	comiss	.LC78(%rip), %xmm0
	jnb	.L348
	cvttss2siq	%xmm0, %rsi
	jmp	.L347
.L348:
	subss	.LC78(%rip), %xmm0
	cvttss2siq	%xmm0, %rsi
	btcq	$63, %rsi
	jmp	.L347
.L441:
	.loc 3 149 19 is_stmt 0 discriminator 37 view .LVU116
	leaq	136(%rsp), %rdx
	leaq	928(%rsp), %rdi
	movq	ada__numerics__big_numbers__big_integers__big_integerFD@GOTPCREL(%rip), %rsi
	call	system__finalization_primitives__attach_object_to_node@PLT
.LVL94:
.LEHE135:
.LEHB136:
	.loc 3 149 12 is_stmt 1 discriminator 40 view .LVU117
	call	*system__soft_links__abort_defer(%rip)
.LVL95:
.LEHE136:
.LBB527:
	.loc 3 149 10 discriminator 44 view .LVU118
	leaq	832(%rsp), %rdi
	movl	$1, %esi
.LEHB137:
	call	ada__numerics__big_numbers__big_integers__big_integerDF@PLT
.LVL96:
	.loc 3 149 12 discriminator 47 view .LVU119
	movdqa	928(%rsp), %xmm6
	movaps	%xmm6, 832(%rsp)
	.loc 3 149 10 discriminator 48 view .LVU120
	leaq	832(%rsp), %rdi
	movl	$1, %esi
	call	ada__numerics__big_numbers__big_integers__big_integerDA@PLT
.LVL97:
.LEHE137:
.LEHB138:
.LBE527:
	.loc 3 149 0 discriminator 50 view .LVU121
	call	system__standard_library__abort_undefer_direct@PLT
.LVL98:
.LEHE138:
	.loc 3 149 0 is_stmt 0 view .LVU122
	leaq	16(%rsp), %r10
.LEHB139:
	call	main__fc__to_big_real__B1098b___finalizer.23
.LVL99:
.LEHE139:
.LBE526:
	.loc 3 153 10 is_stmt 1 view .LVU123
	cmpl	$23, %r12d
	jle	.L442
	.loc 3 158 10 view .LVU124
	cmpl	$24, %r12d
	jle	.L354
.LVL100:
.LBB529:
	.loc 3 159 15 view .LVU125
	movb	$1, 104(%rsp)
	movb	$0, 105(%rsp)
	movb	$0, 106(%rsp)
	movq	$0, 112(%rsp)
.LVL101:
	.loc 3 159 22 discriminator 3 view .LVU126
	movq	$0, 1040(%rsp)
	movq	$0, 1048(%rsp)
	movq	$0, 1056(%rsp)
.LVL102:
	.loc 3 159 22 is_stmt 0 discriminator 6 view .LVU127
	leaq	1072(%rsp), %rdi
	movl	$2, %esi
.LEHB140:
	call	ada__numerics__big_numbers__big_integers__to_big_integer@PLT
.LVL103:
.LEHE140:
	jmp	.L443
.LVL104:
.L442:
	.loc 3 159 22 discriminator 6 view .LVU128
.LBE529:
.LBB532:
	.loc 3 154 15 is_stmt 1 view .LVU129
	movb	$1, 120(%rsp)
	movb	$0, 121(%rsp)
	movb	$0, 122(%rsp)
	movq	$0, 128(%rsp)
.LVL105:
	.loc 3 154 18 discriminator 3 view .LVU130
	movq	$0, 944(%rsp)
	movq	$0, 952(%rsp)
	movq	$0, 960(%rsp)
.LVL106:
	.loc 3 154 18 is_stmt 0 discriminator 6 view .LVU131
	leaq	976(%rsp), %rdi
	movl	$2, %esi
.LEHB141:
	call	ada__numerics__big_numbers__big_integers__to_big_integer@PLT
.LVL107:
	.loc 3 154 18 discriminator 9 view .LVU132
	leaq	120(%rsp), %rcx
	leaq	944(%rsp), %rdx
	leaq	976(%rsp), %rdi
	movq	ada__numerics__big_numbers__big_integers__big_integerFD@GOTPCREL(%rip), %rsi
	call	system__finalization_primitives__attach_object_to_master@PLT
.LVL108:
	.loc 3 154 43 is_stmt 1 discriminator 12 view .LVU133
	cmpl	$-2147483623, %r12d
	jl	.L444
	.loc 3 154 43 is_stmt 0 discriminator 14 view .LVU134
	movl	$24, %edx
	subl	%r12d, %edx
	.loc 3 154 43 discriminator 18 view .LVU135
	cmpl	$24, %r12d
	jg	.L445
.LVL109:
	.loc 3 154 37 is_stmt 1 discriminator 20 view .LVU136
	movq	$0, 992(%rsp)
	movq	$0, 1000(%rsp)
	movq	$0, 1008(%rsp)
.LVL110:
	.loc 3 154 37 is_stmt 0 discriminator 25 view .LVU137
	leaq	1024(%rsp), %rdi
	leaq	976(%rsp), %rsi
	call	ada__numerics__big_numbers__big_integers__Oexpon@PLT
.LVL111:
	jmp	.L446
.L444:
	.loc 3 154 43 is_stmt 1 discriminator 13 view .LVU138
	movl	$154, %esi
	leaq	.LC68(%rip), %rdi
	call	__gnat_rcheck_CE_Overflow_Check@PLT
.LVL112:
.LEHE141:
.L407:
	.loc 3 154 0 discriminator 48 view .LVU139
	movq	%rax, %rbx
.L379:
	leaq	16(%rsp), %r10
.LEHB142:
	call	main__fc__to_big_real__B1116b___finalizer.24
.LVL113:
.LEHE142:
	jmp	.L365
.LVL114:
.L445:
	.loc 3 154 43 discriminator 19 view .LVU140
	movl	$154, %esi
	leaq	.LC68(%rip), %rdi
.LEHB143:
	call	__gnat_rcheck_CE_Range_Check@PLT
.LVL115:
.L446:
	.loc 3 154 37 discriminator 28 view .LVU141
	leaq	120(%rsp), %rcx
	leaq	992(%rsp), %rdx
	leaq	1024(%rsp), %rdi
	movq	ada__numerics__big_numbers__big_integers__big_integerFD@GOTPCREL(%rip), %rsi
	call	system__finalization_primitives__attach_object_to_master@PLT
.LVL116:
.LEHE143:
.LEHB144:
	.loc 3 154 15 discriminator 31 view .LVU142
	call	*system__soft_links__abort_defer(%rip)
.LVL117:
.LEHE144:
.LBB533:
	.loc 3 154 13 discriminator 35 view .LVU143
	leaq	816(%rsp), %rdi
	movl	$1, %esi
.LEHB145:
	call	ada__numerics__big_numbers__big_integers__big_integerDF@PLT
.LVL118:
	.loc 3 154 15 discriminator 38 view .LVU144
	movdqa	1024(%rsp), %xmm1
	movaps	%xmm1, 816(%rsp)
	.loc 3 154 13 discriminator 39 view .LVU145
	leaq	816(%rsp), %rdi
	movl	$1, %esi
	call	ada__numerics__big_numbers__big_integers__big_integerDA@PLT
.LVL119:
.LEHE145:
.LEHB146:
.LBE533:
	.loc 3 154 0 discriminator 41 view .LVU146
	call	system__standard_library__abort_undefer_direct@PLT
.LVL120:
.LEHE146:
	.loc 3 154 0 is_stmt 0 view .LVU147
	leaq	16(%rsp), %r10
.LEHB147:
	call	main__fc__to_big_real__B1116b___finalizer.24
.LVL121:
.LEHE147:
	jmp	.L353
.LVL122:
.L443:
	.loc 3 154 0 view .LVU148
.LBE532:
.LBB535:
	.loc 3 159 22 is_stmt 1 discriminator 9 view .LVU149
	leaq	104(%rsp), %rcx
	leaq	1040(%rsp), %rdx
	leaq	1072(%rsp), %rdi
	movq	ada__numerics__big_numbers__big_integers__big_integerFD@GOTPCREL(%rip), %rsi
.LEHB148:
	call	system__finalization_primitives__attach_object_to_master@PLT
.LVL123:
	.loc 3 159 47 discriminator 12 view .LVU150
	cmpl	$-2147483624, %r12d
	jl	.L447
	.loc 3 159 47 is_stmt 0 discriminator 18 view .LVU151
	movl	%r12d, %edx
	subl	$24, %edx
	js	.L448
.LVL124:
	.loc 3 159 41 is_stmt 1 discriminator 20 view .LVU152
	movq	$0, 1088(%rsp)
	movq	$0, 1096(%rsp)
	movq	$0, 1104(%rsp)
.LVL125:
	.loc 3 159 41 is_stmt 0 discriminator 25 view .LVU153
	leaq	1120(%rsp), %rdi
	leaq	1072(%rsp), %rsi
	call	ada__numerics__big_numbers__big_integers__Oexpon@PLT
.LVL126:
	jmp	.L449
.L447:
	.loc 3 159 47 is_stmt 1 discriminator 13 view .LVU154
	movl	$159, %esi
	leaq	.LC68(%rip), %rdi
	call	__gnat_rcheck_CE_Overflow_Check@PLT
.LVL127:
.LEHE148:
.L411:
	.loc 3 159 0 discriminator 57 view .LVU155
	movq	%rax, %rbx
.L384:
	leaq	16(%rsp), %r10
.LEHB149:
	call	main__fc__to_big_real__B1135b___finalizer.25
.LVL128:
.LEHE149:
	jmp	.L365
.LVL129:
.L448:
	.loc 3 159 47 discriminator 19 view .LVU156
	movl	$159, %esi
	leaq	.LC68(%rip), %rdi
.LEHB150:
	call	__gnat_rcheck_CE_Range_Check@PLT
.LVL130:
.L449:
	.loc 3 159 41 discriminator 28 view .LVU157
	leaq	104(%rsp), %rcx
	leaq	1088(%rsp), %rdx
	leaq	1120(%rsp), %rdi
	movq	ada__numerics__big_numbers__big_integers__big_integerFD@GOTPCREL(%rip), %rsi
	call	system__finalization_primitives__attach_object_to_master@PLT
.LVL131:
	.loc 3 159 20 discriminator 31 view .LVU158
	movq	$0, 1136(%rsp)
	movq	$0, 1144(%rsp)
	movq	$0, 1152(%rsp)
.LVL132:
	.loc 3 159 20 is_stmt 0 discriminator 34 view .LVU159
	leaq	1168(%rsp), %rdi
	leaq	1120(%rsp), %rdx
	leaq	832(%rsp), %rsi
	call	ada__numerics__big_numbers__big_integers__Omultiply@PLT
.LVL133:
	.loc 3 159 20 discriminator 37 view .LVU160
	leaq	104(%rsp), %rcx
	leaq	1136(%rsp), %rdx
	leaq	1168(%rsp), %rdi
	movq	ada__numerics__big_numbers__big_integers__big_integerFD@GOTPCREL(%rip), %rsi
	call	system__finalization_primitives__attach_object_to_master@PLT
.LVL134:
.LEHE150:
.LEHB151:
	.loc 3 159 15 is_stmt 1 discriminator 40 view .LVU161
	call	*system__soft_links__abort_defer(%rip)
.LVL135:
.LEHE151:
.LBB530:
	.loc 3 159 13 discriminator 44 view .LVU162
	leaq	832(%rsp), %rdi
	movl	$1, %esi
.LEHB152:
	call	ada__numerics__big_numbers__big_integers__big_integerDF@PLT
.LVL136:
	.loc 3 159 15 discriminator 47 view .LVU163
	movdqa	1168(%rsp), %xmm7
	movaps	%xmm7, 832(%rsp)
	.loc 3 159 13 discriminator 48 view .LVU164
	leaq	832(%rsp), %rdi
	movl	$1, %esi
	call	ada__numerics__big_numbers__big_integers__big_integerDA@PLT
.LVL137:
.LEHE152:
.LEHB153:
.LBE530:
	.loc 3 159 0 discriminator 50 view .LVU165
	call	system__standard_library__abort_undefer_direct@PLT
.LVL138:
.LEHE153:
	.loc 3 159 0 is_stmt 0 view .LVU166
	leaq	16(%rsp), %r10
.LEHB154:
	call	main__fc__to_big_real__B1135b___finalizer.25
.LVL139:
.LEHE154:
	.loc 3 159 0 view .LVU167
.LBE535:
.LBB536:
	.loc 3 160 15 is_stmt 1 view .LVU168
	movq	$0, 80(%rsp)
	movq	$0, 88(%rsp)
	movq	$0, 96(%rsp)
.LVL140:
	.loc 3 160 18 discriminator 3 view .LVU169
	leaq	1184(%rsp), %rdi
	movl	$1, %esi
.LEHB155:
	call	ada__numerics__big_numbers__big_integers__to_big_integer@PLT
.LVL141:
	.loc 3 160 18 is_stmt 0 discriminator 6 view .LVU170
	leaq	80(%rsp), %rdx
	leaq	1184(%rsp), %rdi
	movq	ada__numerics__big_numbers__big_integers__big_integerFD@GOTPCREL(%rip), %rsi
	call	system__finalization_primitives__attach_object_to_node@PLT
.LVL142:
.LEHE155:
.LEHB156:
	.loc 3 160 15 is_stmt 1 discriminator 9 view .LVU171
	call	*system__soft_links__abort_defer(%rip)
.LVL143:
.LEHE156:
.LBB537:
	.loc 3 160 13 discriminator 13 view .LVU172
	leaq	816(%rsp), %rdi
	movl	$1, %esi
.LEHB157:
	call	ada__numerics__big_numbers__big_integers__big_integerDF@PLT
.LVL144:
	.loc 3 160 15 discriminator 16 view .LVU173
	movdqa	1184(%rsp), %xmm7
	movaps	%xmm7, 816(%rsp)
	.loc 3 160 13 discriminator 17 view .LVU174
	leaq	816(%rsp), %rdi
	movl	$1, %esi
	call	ada__numerics__big_numbers__big_integers__big_integerDA@PLT
.LVL145:
.LEHE157:
.LEHB158:
.LBE537:
	.loc 3 160 0 discriminator 19 view .LVU175
	call	system__standard_library__abort_undefer_direct@PLT
.LVL146:
.LEHE158:
	.loc 3 160 0 is_stmt 0 view .LVU176
	leaq	16(%rsp), %r10
.LEHB159:
	call	main__fc__to_big_real__B1159b___finalizer.26
.LVL147:
.LEHE159:
	jmp	.L353
.LVL148:
.L354:
	.loc 3 160 0 view .LVU177
.LBE536:
.LBB539:
	.loc 3 165 15 is_stmt 1 view .LVU178
	movq	$0, 56(%rsp)
	movq	$0, 64(%rsp)
	movq	$0, 72(%rsp)
.LVL149:
	.loc 3 165 18 discriminator 3 view .LVU179
	leaq	1200(%rsp), %rdi
	movl	$1, %esi
.LEHB160:
	call	ada__numerics__big_numbers__big_integers__to_big_integer@PLT
.LVL150:
	.loc 3 165 18 is_stmt 0 discriminator 6 view .LVU180
	leaq	56(%rsp), %rdx
	leaq	1200(%rsp), %rdi
	movq	ada__numerics__big_numbers__big_integers__big_integerFD@GOTPCREL(%rip), %rsi
	call	system__finalization_primitives__attach_object_to_node@PLT
.LVL151:
.LEHE160:
.LEHB161:
	.loc 3 165 15 is_stmt 1 discriminator 9 view .LVU181
	call	*system__soft_links__abort_defer(%rip)
.LVL152:
.LEHE161:
.LBB540:
	.loc 3 165 13 discriminator 13 view .LVU182
	leaq	816(%rsp), %rdi
	movl	$1, %esi
.LEHB162:
	call	ada__numerics__big_numbers__big_integers__big_integerDF@PLT
.LVL153:
	.loc 3 165 15 discriminator 16 view .LVU183
	movdqa	1200(%rsp), %xmm7
	movaps	%xmm7, 816(%rsp)
	.loc 3 165 13 discriminator 17 view .LVU184
	leaq	816(%rsp), %rdi
	movl	$1, %esi
	call	ada__numerics__big_numbers__big_integers__big_integerDA@PLT
.LVL154:
.LEHE162:
.LEHB163:
.LBE540:
	.loc 3 165 0 discriminator 19 view .LVU185
	call	system__standard_library__abort_undefer_direct@PLT
.LVL155:
.LEHE163:
	.loc 3 165 0 is_stmt 0 view .LVU186
	leaq	16(%rsp), %r10
.LEHB164:
	call	main__fc__to_big_real__B1171b___finalizer.27
.LVL156:
.L353:
.LBE539:
	.loc 3 168 21 is_stmt 1 view .LVU187
	leaq	12(%rsp), %rdi
	movl	$0, %esi
	call	system__fat_flt__attr_float__valid@PLT
.LVL157:
.LEHE164:
	.loc 3 168 21 is_stmt 0 discriminator 2 view .LVU188
	testb	%al, %al
	je	.L450
.LVL158:
.LBB542:
	.loc 3 168 51 is_stmt 1 discriminator 4 view .LVU189
	movq	$0, 32(%rsp)
	movq	$0, 40(%rsp)
	movq	$0, 48(%rsp)
.LVL159:
	.loc 3 168 18 discriminator 8 view .LVU190
	movss	12(%rsp), %xmm1
	pxor	%xmm0, %xmm0
	comiss	%xmm0, %xmm1
	jb	.L428
	.loc 3 168 39 discriminator 9 view .LVU191
	leaq	816(%rsp), %rdx
	leaq	832(%rsp), %rsi
	movq	%rbp, %rdi
.LEHB165:
	call	ada__numerics__big_numbers__big_reals__Odivide@PLT
.LVL160:
.LEHE165:
	jmp	.L360
.L450:
	.loc 3 168 39 is_stmt 0 discriminator 9 view .LVU192
.LBE542:
	.loc 3 168 21 is_stmt 1 discriminator 3 view .LVU193
	movl	$168, %esi
	leaq	.LC68(%rip), %rdi
.LEHB166:
	call	__gnat_rcheck_CE_Invalid_Data@PLT
.LVL161:
.LEHE166:
.L428:
.LBB543:
	.loc 3 168 51 discriminator 10 view .LVU194
	leaq	176(%rsp), %rdi
	leaq	816(%rsp), %rdx
	leaq	832(%rsp), %rsi
.LEHB167:
	call	ada__numerics__big_numbers__big_reals__Odivide@PLT
.LVL162:
	.loc 3 168 51 is_stmt 0 discriminator 17 view .LVU195
	leaq	32(%rsp), %rdx
	leaq	176(%rsp), %rdi
	movq	ada__numerics__big_numbers__big_reals__big_realFD@GOTPCREL(%rip), %rsi
	call	system__finalization_primitives__attach_object_to_node@PLT
.LVL163:
	.loc 3 168 48 is_stmt 1 discriminator 20 view .LVU196
	leaq	176(%rsp), %rsi
	movq	%rbp, %rdi
	call	ada__numerics__big_numbers__big_reals__Osubtract@PLT
.LVL164:
.LEHE167:
.L360:
	.loc 3 168 0 discriminator 24 view .LVU197
	leaq	16(%rsp), %r10
.LEHB168:
	call	main__fc__to_big_real__B1185b___finalizer.28
.LVL165:
	jmp	.L451
.LVL166:
.L398:
	.loc 3 168 0 is_stmt 0 discriminator 24 view .LVU198
.LBE543:
	.loc 3 140 10 is_stmt 1 discriminator 13 view .LVU199
	movq	%rax, %rbp
.LVL167:
	.loc 3 140 10 is_stmt 0 discriminator 13 view .LVU200
	cmpq	$1, %rdx
	je	.L362
	movq	%rax, %rbx
.LVL168:
.L363:
	.loc 3 140 0 is_stmt 1 discriminator 41 view .LVU201
	call	system__standard_library__abort_undefer_direct@PLT
.LVL169:
.LEHE168:
	jmp	.L365
.LVL170:
.L362:
.LBB544:
	.loc 3 140 10 discriminator 32 view .LVU202
	movq	%rax, %rdi
	call	__gnat_begin_handler_v1@PLT
.LVL171:
	.loc 3 140 10 is_stmt 0 discriminator 32 view .LVU203
	movq	%rax, %r12
.LVL172:
	.loc 3 140 10 discriminator 33 view .LVU204
	leaq	832(%rsp), %rdi
	movl	$0, %esi
.LEHB169:
	call	ada__numerics__big_numbers__big_integers__big_integerDF@PLT
.LVL173:
	.loc 3 140 10 discriminator 36 view .LVU205
	movq	%rbp, %rdi
	call	__gnat_reraise_zcx@PLT
.LVL174:
.LEHE169:
.L399:
	.loc 3 140 10 discriminator 38 view .LVU206
	movq	%rax, %rbx
.LVL175:
	.loc 3 140 10 discriminator 39 view .LVU207
	movq	%rax, %rdx
	movq	%r12, %rsi
	movq	%rbp, %rdi
.LEHB170:
	call	__gnat_end_handler_v1@PLT
.LVL176:
.LEHE170:
	.loc 3 140 10 discriminator 39 view .LVU208
	jmp	.L363
.LVL177:
.L397:
	.loc 3 140 10 discriminator 39 view .LVU209
.LBE544:
	.loc 3 140 0 is_stmt 1 discriminator 41 view .LVU210
	movq	%rax, %rbx
	jmp	.L363
.LVL178:
.L401:
	.loc 3 140 10 discriminator 28 view .LVU211
	movq	%rax, %rbp
.LVL179:
	.loc 3 140 10 is_stmt 0 discriminator 28 view .LVU212
	cmpq	$2, %rdx
	je	.L367
	movq	%rax, %rbx
.LVL180:
.L368:
.LEHB171:
	.loc 3 140 0 is_stmt 1 discriminator 53 view .LVU213
	call	system__standard_library__abort_undefer_direct@PLT
.LVL181:
.LEHE171:
	jmp	.L365
.LVL182:
.L367:
.LBB545:
	.loc 3 140 10 discriminator 44 view .LVU214
	movq	%rax, %rdi
	call	__gnat_begin_handler_v1@PLT
.LVL183:
	.loc 3 140 10 is_stmt 0 discriminator 44 view .LVU215
	movq	%rax, %r12
.LVL184:
	.loc 3 140 10 discriminator 45 view .LVU216
	leaq	816(%rsp), %rdi
	movl	$0, %esi
.LEHB172:
	call	ada__numerics__big_numbers__big_integers__big_integerDF@PLT
.LVL185:
	.loc 3 140 10 discriminator 48 view .LVU217
	movq	%rbp, %rdi
	call	__gnat_reraise_zcx@PLT
.LVL186:
.LEHE172:
.L402:
	.loc 3 140 10 discriminator 50 view .LVU218
	movq	%rax, %rbx
.LVL187:
	.loc 3 140 10 discriminator 51 view .LVU219
	movq	%rax, %rdx
	movq	%r12, %rsi
	movq	%rbp, %rdi
.LEHB173:
	call	__gnat_end_handler_v1@PLT
.LVL188:
.LEHE173:
	.loc 3 140 10 discriminator 51 view .LVU220
	jmp	.L368
.LVL189:
.L400:
	.loc 3 140 10 discriminator 51 view .LVU221
.LBE545:
	.loc 3 140 0 is_stmt 1 discriminator 53 view .LVU222
	movq	%rax, %rbx
	jmp	.L368
.LVL190:
.L405:
	.loc 3 140 0 is_stmt 0 discriminator 53 view .LVU223
	movq	%rax, %rbp
.LVL191:
	.loc 3 140 0 discriminator 53 view .LVU224
	cmpq	$3, %rdx
	je	.L371
	movq	%rax, %rbx
.LVL192:
.L372:
.LEHB174:
.LBB546:
	.loc 3 149 0 is_stmt 1 discriminator 42 view .LVU225
	call	system__standard_library__abort_undefer_direct@PLT
.LVL193:
.LEHE174:
	jmp	.L374
.LVL194:
.L371:
	.loc 3 149 0 is_stmt 0 discriminator 42 view .LVU226
	movq	%rax, %rdi
	call	__gnat_begin_handler_v1@PLT
.LVL195:
	.loc 3 149 0 discriminator 42 view .LVU227
	movq	%rax, %r12
.LVL196:
	.loc 3 149 0 discriminator 42 view .LVU228
	leaq	176(%rsp), %rdi
	movq	%rbp, %rsi
.LEHB175:
	call	__gnat_set_exception_parameter@PLT
.LVL197:
.LBB528:
	.loc 3 149 12 is_stmt 1 view .LVU229
	leaq	176(%rsp), %rdi
	call	__gnat_raise_from_controlled_operation@PLT
.LVL198:
.LEHE175:
.L406:
	.loc 3 149 12 is_stmt 0 view .LVU230
	movq	%rax, %rbx
.LVL199:
	.loc 3 149 12 view .LVU231
	movq	%rax, %rdx
	movq	%r12, %rsi
	movq	%rbp, %rdi
.LEHB176:
	call	__gnat_end_handler_v1@PLT
.LVL200:
.LEHE176:
	.loc 3 149 12 view .LVU232
	jmp	.L372
.LVL201:
.L404:
	.loc 3 149 12 view .LVU233
.LBE528:
	.loc 3 149 0 is_stmt 1 discriminator 42 view .LVU234
	movq	%rax, %rbx
	jmp	.L372
.LVL202:
.L409:
	.loc 3 149 0 is_stmt 0 discriminator 42 view .LVU235
	movq	%rax, %rbp
.LVL203:
	.loc 3 149 0 discriminator 42 view .LVU236
	cmpq	$4, %rdx
	je	.L376
	movq	%rax, %rbx
.LVL204:
.L377:
.LEHB177:
	.loc 3 149 0 discriminator 42 view .LVU237
.LBE546:
.LBB547:
	.loc 3 154 0 is_stmt 1 discriminator 33 view .LVU238
	call	system__standard_library__abort_undefer_direct@PLT
.LVL205:
.LEHE177:
	jmp	.L379
.LVL206:
.L376:
	.loc 3 154 0 is_stmt 0 discriminator 33 view .LVU239
	movq	%rax, %rdi
	call	__gnat_begin_handler_v1@PLT
.LVL207:
	.loc 3 154 0 discriminator 33 view .LVU240
	movq	%rax, %r12
.LVL208:
	.loc 3 154 0 discriminator 33 view .LVU241
	leaq	176(%rsp), %rdi
	movq	%rbp, %rsi
.LEHB178:
	call	__gnat_set_exception_parameter@PLT
.LVL209:
.LBB534:
	.loc 3 154 15 is_stmt 1 view .LVU242
	leaq	176(%rsp), %rdi
	call	__gnat_raise_from_controlled_operation@PLT
.LVL210:
.LEHE178:
.L410:
	.loc 3 154 15 is_stmt 0 view .LVU243
	movq	%rax, %rbx
.LVL211:
	.loc 3 154 15 view .LVU244
	movq	%rax, %rdx
	movq	%r12, %rsi
	movq	%rbp, %rdi
.LEHB179:
	call	__gnat_end_handler_v1@PLT
.LVL212:
.LEHE179:
	.loc 3 154 15 view .LVU245
	jmp	.L377
.LVL213:
.L408:
	.loc 3 154 15 view .LVU246
.LBE534:
	.loc 3 154 0 is_stmt 1 discriminator 33 view .LVU247
	movq	%rax, %rbx
	jmp	.L377
.LVL214:
.L413:
	.loc 3 154 0 is_stmt 0 discriminator 33 view .LVU248
	movq	%rax, %rbp
.LVL215:
	.loc 3 154 0 discriminator 33 view .LVU249
	cmpq	$5, %rdx
	je	.L381
	movq	%rax, %rbx
.LVL216:
.L382:
.LEHB180:
	.loc 3 154 0 discriminator 33 view .LVU250
.LBE547:
.LBB548:
	.loc 3 159 0 is_stmt 1 discriminator 42 view .LVU251
	call	system__standard_library__abort_undefer_direct@PLT
.LVL217:
.LEHE180:
	jmp	.L384
.LVL218:
.L381:
	.loc 3 159 0 is_stmt 0 discriminator 42 view .LVU252
	movq	%rax, %rdi
	call	__gnat_begin_handler_v1@PLT
.LVL219:
	.loc 3 159 0 discriminator 42 view .LVU253
	movq	%rax, %r12
.LVL220:
	.loc 3 159 0 discriminator 42 view .LVU254
	leaq	176(%rsp), %rdi
	movq	%rbp, %rsi
.LEHB181:
	call	__gnat_set_exception_parameter@PLT
.LVL221:
.LBB531:
	.loc 3 159 15 is_stmt 1 view .LVU255
	leaq	176(%rsp), %rdi
	call	__gnat_raise_from_controlled_operation@PLT
.LVL222:
.LEHE181:
.L414:
	.loc 3 159 15 is_stmt 0 view .LVU256
	movq	%rax, %rbx
.LVL223:
	.loc 3 159 15 view .LVU257
	movq	%rax, %rdx
	movq	%r12, %rsi
	movq	%rbp, %rdi
.LEHB182:
	call	__gnat_end_handler_v1@PLT
.LVL224:
.LEHE182:
	.loc 3 159 15 view .LVU258
	jmp	.L382
.LVL225:
.L412:
	.loc 3 159 15 view .LVU259
.LBE531:
	.loc 3 159 0 is_stmt 1 discriminator 42 view .LVU260
	movq	%rax, %rbx
	jmp	.L382
.LVL226:
.L417:
	.loc 3 159 0 is_stmt 0 discriminator 42 view .LVU261
	movq	%rax, %rbp
.LVL227:
	.loc 3 159 0 discriminator 42 view .LVU262
	cmpq	$6, %rdx
	je	.L386
	movq	%rax, %rbx
.LVL228:
.L387:
.LEHB183:
	.loc 3 159 0 discriminator 42 view .LVU263
.LBE548:
.LBB549:
	.loc 3 160 0 is_stmt 1 discriminator 11 view .LVU264
	call	system__standard_library__abort_undefer_direct@PLT
.LVL229:
.LEHE183:
	jmp	.L389
.LVL230:
.L386:
	.loc 3 160 0 is_stmt 0 discriminator 11 view .LVU265
	movq	%rax, %rdi
	call	__gnat_begin_handler_v1@PLT
.LVL231:
	.loc 3 160 0 discriminator 11 view .LVU266
	movq	%rax, %r12
.LVL232:
	.loc 3 160 0 discriminator 11 view .LVU267
	leaq	176(%rsp), %rdi
	movq	%rbp, %rsi
.LEHB184:
	call	__gnat_set_exception_parameter@PLT
.LVL233:
.LBB538:
	.loc 3 160 15 is_stmt 1 view .LVU268
	leaq	176(%rsp), %rdi
	call	__gnat_raise_from_controlled_operation@PLT
.LVL234:
.LEHE184:
.L418:
	.loc 3 160 15 is_stmt 0 view .LVU269
	movq	%rax, %rbx
.LVL235:
	.loc 3 160 15 view .LVU270
	movq	%rax, %rdx
	movq	%r12, %rsi
	movq	%rbp, %rdi
.LEHB185:
	call	__gnat_end_handler_v1@PLT
.LVL236:
.LEHE185:
	.loc 3 160 15 view .LVU271
	jmp	.L387
.LVL237:
.L416:
	.loc 3 160 15 view .LVU272
.LBE538:
	.loc 3 160 0 is_stmt 1 discriminator 11 view .LVU273
	movq	%rax, %rbx
	jmp	.L387
.L415:
	.loc 3 160 0 is_stmt 0 discriminator 26 view .LVU274
	movq	%rax, %rbx
.L389:
	leaq	16(%rsp), %r10
.LEHB186:
	call	main__fc__to_big_real__B1159b___finalizer.26
.LVL238:
.LEHE186:
	jmp	.L365
.LVL239:
.L421:
	.loc 3 160 0 discriminator 26 view .LVU275
	movq	%rax, %rbp
.LVL240:
	.loc 3 160 0 discriminator 26 view .LVU276
	cmpq	$7, %rdx
	je	.L391
	movq	%rax, %rbx
.LVL241:
.L392:
.LEHB187:
	.loc 3 160 0 discriminator 26 view .LVU277
.LBE549:
.LBB550:
	.loc 3 165 0 is_stmt 1 discriminator 11 view .LVU278
	call	system__standard_library__abort_undefer_direct@PLT
.LVL242:
.LEHE187:
	jmp	.L394
.LVL243:
.L391:
	.loc 3 165 0 is_stmt 0 discriminator 11 view .LVU279
	movq	%rax, %rdi
	call	__gnat_begin_handler_v1@PLT
.LVL244:
	.loc 3 165 0 discriminator 11 view .LVU280
	movq	%rax, %r12
.LVL245:
	.loc 3 165 0 discriminator 11 view .LVU281
	leaq	176(%rsp), %rdi
	movq	%rbp, %rsi
.LEHB188:
	call	__gnat_set_exception_parameter@PLT
.LVL246:
.LBB541:
	.loc 3 165 15 is_stmt 1 view .LVU282
	leaq	176(%rsp), %rdi
	call	__gnat_raise_from_controlled_operation@PLT
.LVL247:
.LEHE188:
.L422:
	.loc 3 165 15 is_stmt 0 view .LVU283
	movq	%rax, %rbx
.LVL248:
	.loc 3 165 15 view .LVU284
	movq	%rax, %rdx
	movq	%r12, %rsi
	movq	%rbp, %rdi
.LEHB189:
	call	__gnat_end_handler_v1@PLT
.LVL249:
.LEHE189:
	.loc 3 165 15 view .LVU285
	jmp	.L392
.LVL250:
.L420:
	.loc 3 165 15 view .LVU286
.LBE541:
	.loc 3 165 0 is_stmt 1 discriminator 11 view .LVU287
	movq	%rax, %rbx
	jmp	.L392
.L419:
	.loc 3 165 0 is_stmt 0 discriminator 26 view .LVU288
	movq	%rax, %rbx
.L394:
	leaq	16(%rsp), %r10
.LEHB190:
	call	main__fc__to_big_real__B1171b___finalizer.27
.LVL251:
	jmp	.L365
.LVL252:
.L423:
	.loc 3 165 0 discriminator 26 view .LVU289
.LBE550:
.LBB551:
	.loc 3 168 0 is_stmt 1 discriminator 22 view .LVU290
	movq	%rax, %rbx
	leaq	16(%rsp), %r10
	call	main__fc__to_big_real__B1185b___finalizer.28
.LVL253:
.LEHE190:
	jmp	.L365
.L451:
.LBE551:
	.loc 3 169 0 view .LVU291
	leaq	16(%rsp), %r10
.LEHB191:
	call	main__fc__to_big_real___finalizer.29
.LVL254:
	.loc 3 169 11 view .LVU292
	movq	%rbp, %rax
	addq	$1216, %rsp
	.cfi_def_cfa_offset 32
.LEHE191:
	popq	%rbx
	.cfi_def_cfa_offset 24
	popq	%rbp
	.cfi_def_cfa_offset 16
.LVL255:
	.loc 3 169 11 is_stmt 0 view .LVU293
	popq	%r12
	.cfi_def_cfa_offset 8
.LVL256:
	.loc 3 169 11 view .LVU294
	ret
	.cfi_endproc
.LFE20:
	.section	.gcc_except_table.main__fc__to_big_real.19,"a",@progbits
	.align 4
.LLSDA20:
	.byte	0xff
	.byte	0x9b
	.uleb128 .LLSDATT20-.LLSDATTD20
.LLSDATTD20:
	.byte	0x1
	.uleb128 .LLSDACSE20-.LLSDACSB20
.LLSDACSB20:
	.uleb128 .LEHB123-.LFB20
	.uleb128 .LEHE123-.LEHB123
	.uleb128 0
	.uleb128 0
	.uleb128 .LEHB124-.LFB20
	.uleb128 .LEHE124-.LEHB124
	.uleb128 .L396-.LFB20
	.uleb128 0
	.uleb128 .LEHB125-.LFB20
	.uleb128 .LEHE125-.LEHB125
	.uleb128 0
	.uleb128 0
	.uleb128 .LEHB126-.LFB20
	.uleb128 .LEHE126-.LEHB126
	.uleb128 .L396-.LFB20
	.uleb128 0
	.uleb128 .LEHB127-.LFB20
	.uleb128 .LEHE127-.LEHB127
	.uleb128 .L397-.LFB20
	.uleb128 0
	.uleb128 .LEHB128-.LFB20
	.uleb128 .LEHE128-.LEHB128
	.uleb128 .L398-.LFB20
	.uleb128 0x3
	.uleb128 .LEHB129-.LFB20
	.uleb128 .LEHE129-.LEHB129
	.uleb128 .L396-.LFB20
	.uleb128 0
	.uleb128 .LEHB130-.LFB20
	.uleb128 .LEHE130-.LEHB130
	.uleb128 .L400-.LFB20
	.uleb128 0
	.uleb128 .LEHB131-.LFB20
	.uleb128 .LEHE131-.LEHB131
	.uleb128 .L401-.LFB20
	.uleb128 0x5
	.uleb128 .LEHB132-.LFB20
	.uleb128 .LEHE132-.LEHB132
	.uleb128 .L396-.LFB20
	.uleb128 0
	.uleb128 .LEHB133-.LFB20
	.uleb128 .LEHE133-.LEHB133
	.uleb128 .L403-.LFB20
	.uleb128 0
	.uleb128 .LEHB134-.LFB20
	.uleb128 .LEHE134-.LEHB134
	.uleb128 .L396-.LFB20
	.uleb128 0
	.uleb128 .LEHB135-.LFB20
	.uleb128 .LEHE135-.LEHB135
	.uleb128 .L403-.LFB20
	.uleb128 0
	.uleb128 .LEHB136-.LFB20
	.uleb128 .LEHE136-.LEHB136
	.uleb128 .L404-.LFB20
	.uleb128 0
	.uleb128 .LEHB137-.LFB20
	.uleb128 .LEHE137-.LEHB137
	.uleb128 .L405-.LFB20
	.uleb128 0x7
	.uleb128 .LEHB138-.LFB20
	.uleb128 .LEHE138-.LEHB138
	.uleb128 .L403-.LFB20
	.uleb128 0
	.uleb128 .LEHB139-.LFB20
	.uleb128 .LEHE139-.LEHB139
	.uleb128 .L396-.LFB20
	.uleb128 0
	.uleb128 .LEHB140-.LFB20
	.uleb128 .LEHE140-.LEHB140
	.uleb128 .L411-.LFB20
	.uleb128 0
	.uleb128 .LEHB141-.LFB20
	.uleb128 .LEHE141-.LEHB141
	.uleb128 .L407-.LFB20
	.uleb128 0
	.uleb128 .LEHB142-.LFB20
	.uleb128 .LEHE142-.LEHB142
	.uleb128 .L396-.LFB20
	.uleb128 0
	.uleb128 .LEHB143-.LFB20
	.uleb128 .LEHE143-.LEHB143
	.uleb128 .L407-.LFB20
	.uleb128 0
	.uleb128 .LEHB144-.LFB20
	.uleb128 .LEHE144-.LEHB144
	.uleb128 .L408-.LFB20
	.uleb128 0
	.uleb128 .LEHB145-.LFB20
	.uleb128 .LEHE145-.LEHB145
	.uleb128 .L409-.LFB20
	.uleb128 0x9
	.uleb128 .LEHB146-.LFB20
	.uleb128 .LEHE146-.LEHB146
	.uleb128 .L407-.LFB20
	.uleb128 0
	.uleb128 .LEHB147-.LFB20
	.uleb128 .LEHE147-.LEHB147
	.uleb128 .L396-.LFB20
	.uleb128 0
	.uleb128 .LEHB148-.LFB20
	.uleb128 .LEHE148-.LEHB148
	.uleb128 .L411-.LFB20
	.uleb128 0
	.uleb128 .LEHB149-.LFB20
	.uleb128 .LEHE149-.LEHB149
	.uleb128 .L396-.LFB20
	.uleb128 0
	.uleb128 .LEHB150-.LFB20
	.uleb128 .LEHE150-.LEHB150
	.uleb128 .L411-.LFB20
	.uleb128 0
	.uleb128 .LEHB151-.LFB20
	.uleb128 .LEHE151-.LEHB151
	.uleb128 .L412-.LFB20
	.uleb128 0
	.uleb128 .LEHB152-.LFB20
	.uleb128 .LEHE152-.LEHB152
	.uleb128 .L413-.LFB20
	.uleb128 0xb
	.uleb128 .LEHB153-.LFB20
	.uleb128 .LEHE153-.LEHB153
	.uleb128 .L411-.LFB20
	.uleb128 0
	.uleb128 .LEHB154-.LFB20
	.uleb128 .LEHE154-.LEHB154
	.uleb128 .L396-.LFB20
	.uleb128 0
	.uleb128 .LEHB155-.LFB20
	.uleb128 .LEHE155-.LEHB155
	.uleb128 .L415-.LFB20
	.uleb128 0
	.uleb128 .LEHB156-.LFB20
	.uleb128 .LEHE156-.LEHB156
	.uleb128 .L416-.LFB20
	.uleb128 0
	.uleb128 .LEHB157-.LFB20
	.uleb128 .LEHE157-.LEHB157
	.uleb128 .L417-.LFB20
	.uleb128 0xd
	.uleb128 .LEHB158-.LFB20
	.uleb128 .LEHE158-.LEHB158
	.uleb128 .L415-.LFB20
	.uleb128 0
	.uleb128 .LEHB159-.LFB20
	.uleb128 .LEHE159-.LEHB159
	.uleb128 .L396-.LFB20
	.uleb128 0
	.uleb128 .LEHB160-.LFB20
	.uleb128 .LEHE160-.LEHB160
	.uleb128 .L419-.LFB20
	.uleb128 0
	.uleb128 .LEHB161-.LFB20
	.uleb128 .LEHE161-.LEHB161
	.uleb128 .L420-.LFB20
	.uleb128 0
	.uleb128 .LEHB162-.LFB20
	.uleb128 .LEHE162-.LEHB162
	.uleb128 .L421-.LFB20
	.uleb128 0xf
	.uleb128 .LEHB163-.LFB20
	.uleb128 .LEHE163-.LEHB163
	.uleb128 .L419-.LFB20
	.uleb128 0
	.uleb128 .LEHB164-.LFB20
	.uleb128 .LEHE164-.LEHB164
	.uleb128 .L396-.LFB20
	.uleb128 0
	.uleb128 .LEHB165-.LFB20
	.uleb128 .LEHE165-.LEHB165
	.uleb128 .L423-.LFB20
	.uleb128 0
	.uleb128 .LEHB166-.LFB20
	.uleb128 .LEHE166-.LEHB166
	.uleb128 .L396-.LFB20
	.uleb128 0
	.uleb128 .LEHB167-.LFB20
	.uleb128 .LEHE167-.LEHB167
	.uleb128 .L423-.LFB20
	.uleb128 0
	.uleb128 .LEHB168-.LFB20
	.uleb128 .LEHE168-.LEHB168
	.uleb128 .L396-.LFB20
	.uleb128 0
	.uleb128 .LEHB169-.LFB20
	.uleb128 .LEHE169-.LEHB169
	.uleb128 .L399-.LFB20
	.uleb128 0
	.uleb128 .LEHB170-.LFB20
	.uleb128 .LEHE170-.LEHB170
	.uleb128 .L397-.LFB20
	.uleb128 0
	.uleb128 .LEHB171-.LFB20
	.uleb128 .LEHE171-.LEHB171
	.uleb128 .L396-.LFB20
	.uleb128 0
	.uleb128 .LEHB172-.LFB20
	.uleb128 .LEHE172-.LEHB172
	.uleb128 .L402-.LFB20
	.uleb128 0
	.uleb128 .LEHB173-.LFB20
	.uleb128 .LEHE173-.LEHB173
	.uleb128 .L400-.LFB20
	.uleb128 0
	.uleb128 .LEHB174-.LFB20
	.uleb128 .LEHE174-.LEHB174
	.uleb128 .L403-.LFB20
	.uleb128 0
	.uleb128 .LEHB175-.LFB20
	.uleb128 .LEHE175-.LEHB175
	.uleb128 .L406-.LFB20
	.uleb128 0
	.uleb128 .LEHB176-.LFB20
	.uleb128 .LEHE176-.LEHB176
	.uleb128 .L404-.LFB20
	.uleb128 0
	.uleb128 .LEHB177-.LFB20
	.uleb128 .LEHE177-.LEHB177
	.uleb128 .L407-.LFB20
	.uleb128 0
	.uleb128 .LEHB178-.LFB20
	.uleb128 .LEHE178-.LEHB178
	.uleb128 .L410-.LFB20
	.uleb128 0
	.uleb128 .LEHB179-.LFB20
	.uleb128 .LEHE179-.LEHB179
	.uleb128 .L408-.LFB20
	.uleb128 0
	.uleb128 .LEHB180-.LFB20
	.uleb128 .LEHE180-.LEHB180
	.uleb128 .L411-.LFB20
	.uleb128 0
	.uleb128 .LEHB181-.LFB20
	.uleb128 .LEHE181-.LEHB181
	.uleb128 .L414-.LFB20
	.uleb128 0
	.uleb128 .LEHB182-.LFB20
	.uleb128 .LEHE182-.LEHB182
	.uleb128 .L412-.LFB20
	.uleb128 0
	.uleb128 .LEHB183-.LFB20
	.uleb128 .LEHE183-.LEHB183
	.uleb128 .L415-.LFB20
	.uleb128 0
	.uleb128 .LEHB184-.LFB20
	.uleb128 .LEHE184-.LEHB184
	.uleb128 .L418-.LFB20
	.uleb128 0
	.uleb128 .LEHB185-.LFB20
	.uleb128 .LEHE185-.LEHB185
	.uleb128 .L416-.LFB20
	.uleb128 0
	.uleb128 .LEHB186-.LFB20
	.uleb128 .LEHE186-.LEHB186
	.uleb128 .L396-.LFB20
	.uleb128 0
	.uleb128 .LEHB187-.LFB20
	.uleb128 .LEHE187-.LEHB187
	.uleb128 .L419-.LFB20
	.uleb128 0
	.uleb128 .LEHB188-.LFB20
	.uleb128 .LEHE188-.LEHB188
	.uleb128 .L422-.LFB20
	.uleb128 0
	.uleb128 .LEHB189-.LFB20
	.uleb128 .LEHE189-.LEHB189
	.uleb128 .L420-.LFB20
	.uleb128 0
	.uleb128 .LEHB190-.LFB20
	.uleb128 .LEHE190-.LEHB190
	.uleb128 .L396-.LFB20
	.uleb128 0
	.uleb128 .LEHB191-.LFB20
	.uleb128 .LEHE191-.LEHB191
	.uleb128 0
	.uleb128 0
.LLSDACSE20:
	.byte	0
	.byte	0
	.byte	0x1
	.byte	0x7d
	.byte	0x2
	.byte	0x7b
	.byte	0x3
	.byte	0x79
	.byte	0x4
	.byte	0x77
	.byte	0x5
	.byte	0x75
	.byte	0x6
	.byte	0x73
	.byte	0x7
	.byte	0x71
	.align 4
	.long	DW.ref.__gnat_others_value-.
	.long	DW.ref.__gnat_others_value-.
	.long	DW.ref.__gnat_others_value-.
	.long	DW.ref.__gnat_others_value-.
	.long	DW.ref.__gnat_others_value-.
	.long	DW.ref.__gnat_others_value-.
	.long	DW.ref.__gnat_others_value-.
.LLSDATT20:
	.section	.text.main__fc__to_big_real.19
	.size	main__fc__to_big_real.19, .-main__fc__to_big_real.19
	.section	.text.main__detect_bounces__B_2___finalizer.40,"ax",@progbits
	.align 2
	.type	main__detect_bounces__B_2___finalizer.40, @function
main__detect_bounces__B_2___finalizer.40:
.LFB98:
	.cfi_startproc
	.cfi_personality 0x9b,DW.ref.__gnat_personality_v0
	.cfi_lsda 0x1b,.LLSDA98
	pushq	%r14
	.cfi_def_cfa_offset 16
	.cfi_offset 14, -16
	pushq	%rbx
	.cfi_def_cfa_offset 24
	.cfi_offset 3, -24
.LEHB192:
	subq	$8, %rsp
	.cfi_def_cfa_offset 32
	movq	%r10, %rbx
	call	ada__exceptions__triggered_by_abort@PLT
	movl	%eax, %r14d
	call	*system__soft_links__abort_defer(%rip)
.LEHE192:
	movq	%rbx, %rdi
.LEHB193:
	call	system__finalization_primitives__finalize_master@PLT
.LEHE193:
	movl	$0, %ebx
.L456:
.LEHB194:
	call	*system__soft_links__abort_undefer(%rip)
	movl	%r14d, %eax
	xorl	$1, %eax
	testb	%al, %bl
	jne	.L459
	addq	$8, %rsp
	.cfi_remember_state
	.cfi_def_cfa_offset 24
	popq	%rbx
	.cfi_def_cfa_offset 16
	popq	%r14
	.cfi_def_cfa_offset 8
	ret
.L459:
	.cfi_restore_state
	movl	$116, %esi
	leaq	.LC65(%rip), %rdi
	call	__gnat_rcheck_PE_Finalize_Raised_Exception@PLT
.L457:
	movq	%rax, %rdi
	cmpq	$1, %rdx
	je	.L455
	call	_Unwind_Resume@PLT
.L455:
	movq	%rax, %rbx
	movq	%rax, %rdi
	call	__gnat_begin_handler_v1@PLT
	movq	%rax, %rsi
	movl	$0, %edx
	movq	%rbx, %rdi
	call	__gnat_end_handler_v1@PLT
.LEHE194:
	movl	$1, %ebx
	jmp	.L456
	.cfi_endproc
.LFE98:
	.section	.gcc_except_table.main__detect_bounces__B_2___finalizer.40,"a",@progbits
	.align 4
.LLSDA98:
	.byte	0xff
	.byte	0x9b
	.uleb128 .LLSDATT98-.LLSDATTD98
.LLSDATTD98:
	.byte	0x1
	.uleb128 .LLSDACSE98-.LLSDACSB98
.LLSDACSB98:
	.uleb128 .LEHB192-.LFB98
	.uleb128 .LEHE192-.LEHB192
	.uleb128 0
	.uleb128 0
	.uleb128 .LEHB193-.LFB98
	.uleb128 .LEHE193-.LEHB193
	.uleb128 .L457-.LFB98
	.uleb128 0x1
	.uleb128 .LEHB194-.LFB98
	.uleb128 .LEHE194-.LEHB194
	.uleb128 0
	.uleb128 0
.LLSDACSE98:
	.byte	0x1
	.byte	0
	.align 4
	.long	DW.ref.__gnat_others_value-.
.LLSDATT98:
	.section	.text.main__detect_bounces__B_2___finalizer.40
	.size	main__detect_bounces__B_2___finalizer.40, .-main__detect_bounces__B_2___finalizer.40
	.section	.text.main__univ__reflect_velocity_x__B942b___finalizer.43,"ax",@progbits
	.align 2
	.type	main__univ__reflect_velocity_x__B942b___finalizer.43, @function
main__univ__reflect_velocity_x__B942b___finalizer.43:
.LFB9:
	.cfi_startproc
	.cfi_personality 0x9b,DW.ref.__gnat_personality_v0
	.cfi_lsda 0x1b,.LLSDA9
	pushq	%r14
	.cfi_def_cfa_offset 16
	.cfi_offset 14, -16
	pushq	%rbx
	.cfi_def_cfa_offset 24
	.cfi_offset 3, -24
.LEHB195:
	subq	$8, %rsp
	.cfi_def_cfa_offset 32
	movq	%r10, %rbx
	call	ada__exceptions__triggered_by_abort@PLT
	movl	%eax, %r14d
	call	*system__soft_links__abort_defer(%rip)
.LEHE195:
	movq	%rbx, %rdi
.LEHB196:
	call	system__finalization_primitives__finalize_master@PLT
.LEHE196:
	movl	$0, %ebx
.L464:
.LEHB197:
	call	*system__soft_links__abort_undefer(%rip)
	movl	%r14d, %eax
	xorl	$1, %eax
	testb	%al, %bl
	jne	.L467
	addq	$8, %rsp
	.cfi_remember_state
	.cfi_def_cfa_offset 24
	popq	%rbx
	.cfi_def_cfa_offset 16
	popq	%r14
	.cfi_def_cfa_offset 8
	ret
.L467:
	.cfi_restore_state
	movl	$42, %esi
	leaq	.LC69(%rip), %rdi
	call	__gnat_rcheck_PE_Finalize_Raised_Exception@PLT
.L465:
	movq	%rax, %rdi
	cmpq	$1, %rdx
	je	.L463
	call	_Unwind_Resume@PLT
.L463:
	movq	%rax, %rbx
	movq	%rax, %rdi
	call	__gnat_begin_handler_v1@PLT
	movq	%rax, %rsi
	movl	$0, %edx
	movq	%rbx, %rdi
	call	__gnat_end_handler_v1@PLT
.LEHE197:
	movl	$1, %ebx
	jmp	.L464
	.cfi_endproc
.LFE9:
	.section	.gcc_except_table.main__univ__reflect_velocity_x__B942b___finalizer.43,"a",@progbits
	.align 4
.LLSDA9:
	.byte	0xff
	.byte	0x9b
	.uleb128 .LLSDATT9-.LLSDATTD9
.LLSDATTD9:
	.byte	0x1
	.uleb128 .LLSDACSE9-.LLSDACSB9
.LLSDACSB9:
	.uleb128 .LEHB195-.LFB9
	.uleb128 .LEHE195-.LEHB195
	.uleb128 0
	.uleb128 0
	.uleb128 .LEHB196-.LFB9
	.uleb128 .LEHE196-.LEHB196
	.uleb128 .L465-.LFB9
	.uleb128 0x1
	.uleb128 .LEHB197-.LFB9
	.uleb128 .LEHE197-.LEHB197
	.uleb128 0
	.uleb128 0
.LLSDACSE9:
	.byte	0x1
	.byte	0
	.align 4
	.long	DW.ref.__gnat_others_value-.
.LLSDATT9:
	.section	.text.main__univ__reflect_velocity_x__B942b___finalizer.43
	.size	main__univ__reflect_velocity_x__B942b___finalizer.43, .-main__univ__reflect_velocity_x__B942b___finalizer.43
	.section	.text.main__univ__reflect_velocity_y__B960b___finalizer.46,"ax",@progbits
	.align 2
	.type	main__univ__reflect_velocity_y__B960b___finalizer.46, @function
main__univ__reflect_velocity_y__B960b___finalizer.46:
.LFB11:
	.cfi_startproc
	.cfi_personality 0x9b,DW.ref.__gnat_personality_v0
	.cfi_lsda 0x1b,.LLSDA11
	pushq	%r14
	.cfi_def_cfa_offset 16
	.cfi_offset 14, -16
	pushq	%rbx
	.cfi_def_cfa_offset 24
	.cfi_offset 3, -24
.LEHB198:
	subq	$8, %rsp
	.cfi_def_cfa_offset 32
	movq	%r10, %rbx
	call	ada__exceptions__triggered_by_abort@PLT
	movl	%eax, %r14d
	call	*system__soft_links__abort_defer(%rip)
.LEHE198:
	movq	%rbx, %rdi
.LEHB199:
	call	system__finalization_primitives__finalize_master@PLT
.LEHE199:
	movl	$0, %ebx
.L472:
.LEHB200:
	call	*system__soft_links__abort_undefer(%rip)
	movl	%r14d, %eax
	xorl	$1, %eax
	testb	%al, %bl
	jne	.L475
	addq	$8, %rsp
	.cfi_remember_state
	.cfi_def_cfa_offset 24
	popq	%rbx
	.cfi_def_cfa_offset 16
	popq	%r14
	.cfi_def_cfa_offset 8
	ret
.L475:
	.cfi_restore_state
	movl	$47, %esi
	leaq	.LC69(%rip), %rdi
	call	__gnat_rcheck_PE_Finalize_Raised_Exception@PLT
.L473:
	movq	%rax, %rdi
	cmpq	$1, %rdx
	je	.L471
	call	_Unwind_Resume@PLT
.L471:
	movq	%rax, %rbx
	movq	%rax, %rdi
	call	__gnat_begin_handler_v1@PLT
	movq	%rax, %rsi
	movl	$0, %edx
	movq	%rbx, %rdi
	call	__gnat_end_handler_v1@PLT
.LEHE200:
	movl	$1, %ebx
	jmp	.L472
	.cfi_endproc
.LFE11:
	.section	.gcc_except_table.main__univ__reflect_velocity_y__B960b___finalizer.46,"a",@progbits
	.align 4
.LLSDA11:
	.byte	0xff
	.byte	0x9b
	.uleb128 .LLSDATT11-.LLSDATTD11
.LLSDATTD11:
	.byte	0x1
	.uleb128 .LLSDACSE11-.LLSDACSB11
.LLSDACSB11:
	.uleb128 .LEHB198-.LFB11
	.uleb128 .LEHE198-.LEHB198
	.uleb128 0
	.uleb128 0
	.uleb128 .LEHB199-.LFB11
	.uleb128 .LEHE199-.LEHB199
	.uleb128 .L473-.LFB11
	.uleb128 0x1
	.uleb128 .LEHB200-.LFB11
	.uleb128 .LEHE200-.LEHB200
	.uleb128 0
	.uleb128 0
.LLSDACSE11:
	.byte	0x1
	.byte	0
	.align 4
	.long	DW.ref.__gnat_others_value-.
.LLSDATT11:
	.section	.text.main__univ__reflect_velocity_y__B960b___finalizer.46
	.size	main__univ__reflect_velocity_y__B960b___finalizer.46, .-main__univ__reflect_velocity_y__B960b___finalizer.46
	.section	.text.main__univ__init___finalizer.57,"ax",@progbits
	.align 2
	.type	main__univ__init___finalizer.57, @function
main__univ__init___finalizer.57:
.LFB5:
	.cfi_startproc
	.cfi_personality 0x9b,DW.ref.__gnat_personality_v0
	.cfi_lsda 0x1b,.LLSDA5
	pushq	%r14
	.cfi_def_cfa_offset 16
	.cfi_offset 14, -16
	pushq	%rbx
	.cfi_def_cfa_offset 24
	.cfi_offset 3, -24
.LEHB201:
	subq	$8, %rsp
	.cfi_def_cfa_offset 32
	movq	%r10, %rbx
	call	ada__exceptions__triggered_by_abort@PLT
	movl	%eax, %r14d
	call	*system__soft_links__abort_defer(%rip)
.LEHE201:
	movq	%rbx, %rdi
.LEHB202:
	call	system__finalization_primitives__finalize_master@PLT
.LEHE202:
	movl	$0, %ebx
.L480:
.LEHB203:
	call	*system__soft_links__abort_undefer(%rip)
	movl	%r14d, %eax
	xorl	$1, %eax
	testb	%al, %bl
	jne	.L483
	addq	$8, %rsp
	.cfi_remember_state
	.cfi_def_cfa_offset 24
	popq	%rbx
	.cfi_def_cfa_offset 16
	popq	%r14
	.cfi_def_cfa_offset 8
	ret
.L483:
	.cfi_restore_state
	movl	$9, %esi
	leaq	.LC69(%rip), %rdi
	call	__gnat_rcheck_PE_Finalize_Raised_Exception@PLT
.L481:
	movq	%rax, %rdi
	cmpq	$1, %rdx
	je	.L479
	call	_Unwind_Resume@PLT
.L479:
	movq	%rax, %rbx
	movq	%rax, %rdi
	call	__gnat_begin_handler_v1@PLT
	movq	%rax, %rsi
	movl	$0, %edx
	movq	%rbx, %rdi
	call	__gnat_end_handler_v1@PLT
.LEHE203:
	movl	$1, %ebx
	jmp	.L480
	.cfi_endproc
.LFE5:
	.section	.gcc_except_table.main__univ__init___finalizer.57,"a",@progbits
	.align 4
.LLSDA5:
	.byte	0xff
	.byte	0x9b
	.uleb128 .LLSDATT5-.LLSDATTD5
.LLSDATTD5:
	.byte	0x1
	.uleb128 .LLSDACSE5-.LLSDACSB5
.LLSDACSB5:
	.uleb128 .LEHB201-.LFB5
	.uleb128 .LEHE201-.LEHB201
	.uleb128 0
	.uleb128 0
	.uleb128 .LEHB202-.LFB5
	.uleb128 .LEHE202-.LEHB202
	.uleb128 .L481-.LFB5
	.uleb128 0x1
	.uleb128 .LEHB203-.LFB5
	.uleb128 .LEHE203-.LEHB203
	.uleb128 0
	.uleb128 0
.LLSDACSE5:
	.byte	0x1
	.byte	0
	.align 4
	.long	DW.ref.__gnat_others_value-.
.LLSDATT5:
	.section	.text.main__univ__init___finalizer.57
	.size	main__univ__init___finalizer.57, .-main__univ__init___finalizer.57
	.section	.text.main__reset_universe__B597b___finalizer.61,"ax",@progbits
	.align 2
	.type	main__reset_universe__B597b___finalizer.61, @function
main__reset_universe__B597b___finalizer.61:
.LFB104:
	.cfi_startproc
	.cfi_personality 0x9b,DW.ref.__gnat_personality_v0
	.cfi_lsda 0x1b,.LLSDA104
	pushq	%r14
	.cfi_def_cfa_offset 16
	.cfi_offset 14, -16
	pushq	%rbx
	.cfi_def_cfa_offset 24
	.cfi_offset 3, -24
.LEHB204:
	subq	$8, %rsp
	.cfi_def_cfa_offset 32
	movq	%r10, %rbx
	call	ada__exceptions__triggered_by_abort@PLT
	movl	%eax, %r14d
	call	*system__soft_links__abort_defer(%rip)
.LEHE204:
	movq	%rbx, %rdi
.LEHB205:
	call	system__finalization_primitives__finalize_master@PLT
.LEHE205:
	movl	$0, %ebx
.L488:
.LEHB206:
	call	*system__soft_links__abort_undefer(%rip)
	movl	%r14d, %eax
	xorl	$1, %eax
	testb	%al, %bl
	jne	.L491
	addq	$8, %rsp
	.cfi_remember_state
	.cfi_def_cfa_offset 24
	popq	%rbx
	.cfi_def_cfa_offset 16
	popq	%r14
	.cfi_def_cfa_offset 8
	ret
.L491:
	.cfi_restore_state
	movl	$169, %esi
	leaq	.LC65(%rip), %rdi
	call	__gnat_rcheck_PE_Finalize_Raised_Exception@PLT
.L489:
	movq	%rax, %rdi
	cmpq	$1, %rdx
	je	.L487
	call	_Unwind_Resume@PLT
.L487:
	movq	%rax, %rbx
	movq	%rax, %rdi
	call	__gnat_begin_handler_v1@PLT
	movq	%rax, %rsi
	movl	$0, %edx
	movq	%rbx, %rdi
	call	__gnat_end_handler_v1@PLT
.LEHE206:
	movl	$1, %ebx
	jmp	.L488
	.cfi_endproc
.LFE104:
	.section	.gcc_except_table.main__reset_universe__B597b___finalizer.61,"a",@progbits
	.align 4
.LLSDA104:
	.byte	0xff
	.byte	0x9b
	.uleb128 .LLSDATT104-.LLSDATTD104
.LLSDATTD104:
	.byte	0x1
	.uleb128 .LLSDACSE104-.LLSDACSB104
.LLSDACSB104:
	.uleb128 .LEHB204-.LFB104
	.uleb128 .LEHE204-.LEHB204
	.uleb128 0
	.uleb128 0
	.uleb128 .LEHB205-.LFB104
	.uleb128 .LEHE205-.LEHB205
	.uleb128 .L489-.LFB104
	.uleb128 0x1
	.uleb128 .LEHB206-.LFB104
	.uleb128 .LEHE206-.LEHB206
	.uleb128 0
	.uleb128 0
.LLSDACSE104:
	.byte	0x1
	.byte	0
	.align 4
	.long	DW.ref.__gnat_others_value-.
.LLSDATT104:
	.section	.text.main__reset_universe__B597b___finalizer.61
	.size	main__reset_universe__B597b___finalizer.61, .-main__reset_universe__B597b___finalizer.61
	.section	.text.main__disp__capture__L_1__B1479b___finalizer.67,"ax",@progbits
	.align 2
	.type	main__disp__capture__L_1__B1479b___finalizer.67, @function
main__disp__capture__L_1__B1479b___finalizer.67:
.LFB51:
	.cfi_startproc
	.cfi_personality 0x9b,DW.ref.__gnat_personality_v0
	.cfi_lsda 0x1b,.LLSDA51
	pushq	%r14
	.cfi_def_cfa_offset 16
	.cfi_offset 14, -16
	pushq	%rbx
	.cfi_def_cfa_offset 24
	.cfi_offset 3, -24
.LEHB207:
	subq	$8, %rsp
	.cfi_def_cfa_offset 32
	movq	%r10, %rbx
	call	ada__exceptions__triggered_by_abort@PLT
	movl	%eax, %r14d
	call	*system__soft_links__abort_defer(%rip)
.LEHE207:
	addq	$32, %rbx
	movq	%rbx, %rdi
.LEHB208:
	call	system__finalization_primitives__finalize_master@PLT
.LEHE208:
	movl	$0, %ebx
.L496:
.LEHB209:
	call	*system__soft_links__abort_undefer(%rip)
	movl	%r14d, %eax
	xorl	$1, %eax
	testb	%al, %bl
	jne	.L499
	addq	$8, %rsp
	.cfi_remember_state
	.cfi_def_cfa_offset 24
	popq	%rbx
	.cfi_def_cfa_offset 16
	popq	%r14
	.cfi_def_cfa_offset 8
	ret
.L499:
	.cfi_restore_state
	movl	$49, %esi
	leaq	.LC71(%rip), %rdi
	call	__gnat_rcheck_PE_Finalize_Raised_Exception@PLT
.L497:
	movq	%rax, %rdi
	cmpq	$1, %rdx
	je	.L495
	call	_Unwind_Resume@PLT
.L495:
	movq	%rax, %rbx
	movq	%rax, %rdi
	call	__gnat_begin_handler_v1@PLT
	movq	%rax, %rsi
	movl	$0, %edx
	movq	%rbx, %rdi
	call	__gnat_end_handler_v1@PLT
.LEHE209:
	movl	$1, %ebx
	jmp	.L496
	.cfi_endproc
.LFE51:
	.section	.gcc_except_table.main__disp__capture__L_1__B1479b___finalizer.67,"a",@progbits
	.align 4
.LLSDA51:
	.byte	0xff
	.byte	0x9b
	.uleb128 .LLSDATT51-.LLSDATTD51
.LLSDATTD51:
	.byte	0x1
	.uleb128 .LLSDACSE51-.LLSDACSB51
.LLSDACSB51:
	.uleb128 .LEHB207-.LFB51
	.uleb128 .LEHE207-.LEHB207
	.uleb128 0
	.uleb128 0
	.uleb128 .LEHB208-.LFB51
	.uleb128 .LEHE208-.LEHB208
	.uleb128 .L497-.LFB51
	.uleb128 0x1
	.uleb128 .LEHB209-.LFB51
	.uleb128 .LEHE209-.LEHB209
	.uleb128 0
	.uleb128 0
.LLSDACSE51:
	.byte	0x1
	.byte	0
	.align 4
	.long	DW.ref.__gnat_others_value-.
.LLSDATT51:
	.section	.text.main__disp__capture__L_1__B1479b___finalizer.67
	.size	main__disp__capture__L_1__B1479b___finalizer.67, .-main__disp__capture__L_1__B1479b___finalizer.67
	.section	.text.main__disp__capture__L_1__B1499b___finalizer.68,"ax",@progbits
	.align 2
	.type	main__disp__capture__L_1__B1499b___finalizer.68, @function
main__disp__capture__L_1__B1499b___finalizer.68:
.LFB52:
	.cfi_startproc
	.cfi_personality 0x9b,DW.ref.__gnat_personality_v0
	.cfi_lsda 0x1b,.LLSDA52
	pushq	%r14
	.cfi_def_cfa_offset 16
	.cfi_offset 14, -16
	pushq	%rbx
	.cfi_def_cfa_offset 24
	.cfi_offset 3, -24
.LEHB210:
	subq	$8, %rsp
	.cfi_def_cfa_offset 32
	movq	%r10, %rbx
	call	ada__exceptions__triggered_by_abort@PLT
	movl	%eax, %r14d
	call	*system__soft_links__abort_defer(%rip)
.LEHE210:
	addq	$16, %rbx
	movq	%rbx, %rdi
.LEHB211:
	call	system__finalization_primitives__finalize_master@PLT
.LEHE211:
	movl	$0, %ebx
.L504:
.LEHB212:
	call	*system__soft_links__abort_undefer(%rip)
	movl	%r14d, %eax
	xorl	$1, %eax
	testb	%al, %bl
	jne	.L507
	addq	$8, %rsp
	.cfi_remember_state
	.cfi_def_cfa_offset 24
	popq	%rbx
	.cfi_def_cfa_offset 16
	popq	%r14
	.cfi_def_cfa_offset 8
	ret
.L507:
	.cfi_restore_state
	movl	$51, %esi
	leaq	.LC71(%rip), %rdi
	call	__gnat_rcheck_PE_Finalize_Raised_Exception@PLT
.L505:
	movq	%rax, %rdi
	cmpq	$1, %rdx
	je	.L503
	call	_Unwind_Resume@PLT
.L503:
	movq	%rax, %rbx
	movq	%rax, %rdi
	call	__gnat_begin_handler_v1@PLT
	movq	%rax, %rsi
	movl	$0, %edx
	movq	%rbx, %rdi
	call	__gnat_end_handler_v1@PLT
.LEHE212:
	movl	$1, %ebx
	jmp	.L504
	.cfi_endproc
.LFE52:
	.section	.gcc_except_table.main__disp__capture__L_1__B1499b___finalizer.68,"a",@progbits
	.align 4
.LLSDA52:
	.byte	0xff
	.byte	0x9b
	.uleb128 .LLSDATT52-.LLSDATTD52
.LLSDATTD52:
	.byte	0x1
	.uleb128 .LLSDACSE52-.LLSDACSB52
.LLSDACSB52:
	.uleb128 .LEHB210-.LFB52
	.uleb128 .LEHE210-.LEHB210
	.uleb128 0
	.uleb128 0
	.uleb128 .LEHB211-.LFB52
	.uleb128 .LEHE211-.LEHB211
	.uleb128 .L505-.LFB52
	.uleb128 0x1
	.uleb128 .LEHB212-.LFB52
	.uleb128 .LEHE212-.LEHB212
	.uleb128 0
	.uleb128 0
.LLSDACSE52:
	.byte	0x1
	.byte	0
	.align 4
	.long	DW.ref.__gnat_others_value-.
.LLSDATT52:
	.section	.text.main__disp__capture__L_1__B1499b___finalizer.68
	.size	main__disp__capture__L_1__B1499b___finalizer.68, .-main__disp__capture__L_1__B1499b___finalizer.68
	.section	.text.main__disp__capture___finalizer.69,"ax",@progbits
	.align 2
	.type	main__disp__capture___finalizer.69, @function
main__disp__capture___finalizer.69:
.LFB53:
	.cfi_startproc
	.cfi_personality 0x9b,DW.ref.__gnat_personality_v0
	.cfi_lsda 0x1b,.LLSDA53
	pushq	%r14
	.cfi_def_cfa_offset 16
	.cfi_offset 14, -16
	pushq	%rbx
	.cfi_def_cfa_offset 24
	.cfi_offset 3, -24
.LEHB213:
	subq	$8, %rsp
	.cfi_def_cfa_offset 32
	movq	%r10, %rbx
	call	ada__exceptions__triggered_by_abort@PLT
	movl	%eax, %r14d
	call	*system__soft_links__abort_defer(%rip)
.LEHE213:
	movq	%rbx, %rdi
.LEHB214:
	call	system__finalization_primitives__finalize_master@PLT
.LEHE214:
	movl	$0, %ebx
.L512:
.LEHB215:
	call	*system__soft_links__abort_undefer(%rip)
	movl	%r14d, %eax
	xorl	$1, %eax
	testb	%al, %bl
	jne	.L515
	addq	$8, %rsp
	.cfi_remember_state
	.cfi_def_cfa_offset 24
	popq	%rbx
	.cfi_def_cfa_offset 16
	popq	%r14
	.cfi_def_cfa_offset 8
	ret
.L515:
	.cfi_restore_state
	movl	$35, %esi
	leaq	.LC71(%rip), %rdi
	call	__gnat_rcheck_PE_Finalize_Raised_Exception@PLT
.L513:
	movq	%rax, %rdi
	cmpq	$1, %rdx
	je	.L511
	call	_Unwind_Resume@PLT
.L511:
	movq	%rax, %rbx
	movq	%rax, %rdi
	call	__gnat_begin_handler_v1@PLT
	movq	%rax, %rsi
	movl	$0, %edx
	movq	%rbx, %rdi
	call	__gnat_end_handler_v1@PLT
.LEHE215:
	movl	$1, %ebx
	jmp	.L512
	.cfi_endproc
.LFE53:
	.section	.gcc_except_table.main__disp__capture___finalizer.69,"a",@progbits
	.align 4
.LLSDA53:
	.byte	0xff
	.byte	0x9b
	.uleb128 .LLSDATT53-.LLSDATTD53
.LLSDATTD53:
	.byte	0x1
	.uleb128 .LLSDACSE53-.LLSDACSB53
.LLSDACSB53:
	.uleb128 .LEHB213-.LFB53
	.uleb128 .LEHE213-.LEHB213
	.uleb128 0
	.uleb128 0
	.uleb128 .LEHB214-.LFB53
	.uleb128 .LEHE214-.LEHB214
	.uleb128 .L513-.LFB53
	.uleb128 0x1
	.uleb128 .LEHB215-.LFB53
	.uleb128 .LEHE215-.LEHB215
	.uleb128 0
	.uleb128 0
.LLSDACSE53:
	.byte	0x1
	.byte	0
	.align 4
	.long	DW.ref.__gnat_others_value-.
.LLSDATT53:
	.section	.text.main__disp__capture___finalizer.69
	.size	main__disp__capture___finalizer.69, .-main__disp__capture___finalizer.69
	.section	.text.main__L_5__B743b___finalizer.73,"ax",@progbits
	.align 2
	.type	main__L_5__B743b___finalizer.73, @function
main__L_5__B743b___finalizer.73:
.LFB112:
	.cfi_startproc
	.cfi_personality 0x9b,DW.ref.__gnat_personality_v0
	.cfi_lsda 0x1b,.LLSDA112
	pushq	%r14
	.cfi_def_cfa_offset 16
	.cfi_offset 14, -16
	pushq	%rbx
	.cfi_def_cfa_offset 24
	.cfi_offset 3, -24
.LEHB216:
	subq	$8, %rsp
	.cfi_def_cfa_offset 32
	movq	%r10, %rbx
	call	ada__exceptions__triggered_by_abort@PLT
	movl	%eax, %r14d
	call	*system__soft_links__abort_defer(%rip)
.LEHE216:
	addq	$48, %rbx
	movq	%rbx, %rdi
.LEHB217:
	call	system__finalization_primitives__finalize_master@PLT
.LEHE217:
	movl	$0, %ebx
.L520:
.LEHB218:
	call	*system__soft_links__abort_undefer(%rip)
	movl	%r14d, %eax
	xorl	$1, %eax
	testb	%al, %bl
	jne	.L523
	addq	$8, %rsp
	.cfi_remember_state
	.cfi_def_cfa_offset 24
	popq	%rbx
	.cfi_def_cfa_offset 16
	popq	%r14
	.cfi_def_cfa_offset 8
	ret
.L523:
	.cfi_restore_state
	movl	$189, %esi
	leaq	.LC65(%rip), %rdi
	call	__gnat_rcheck_PE_Finalize_Raised_Exception@PLT
.L521:
	movq	%rax, %rdi
	cmpq	$1, %rdx
	je	.L519
	call	_Unwind_Resume@PLT
.L519:
	movq	%rax, %rbx
	movq	%rax, %rdi
	call	__gnat_begin_handler_v1@PLT
	movq	%rax, %rsi
	movl	$0, %edx
	movq	%rbx, %rdi
	call	__gnat_end_handler_v1@PLT
.LEHE218:
	movl	$1, %ebx
	jmp	.L520
	.cfi_endproc
.LFE112:
	.section	.gcc_except_table.main__L_5__B743b___finalizer.73,"a",@progbits
	.align 4
.LLSDA112:
	.byte	0xff
	.byte	0x9b
	.uleb128 .LLSDATT112-.LLSDATTD112
.LLSDATTD112:
	.byte	0x1
	.uleb128 .LLSDACSE112-.LLSDACSB112
.LLSDACSB112:
	.uleb128 .LEHB216-.LFB112
	.uleb128 .LEHE216-.LEHB216
	.uleb128 0
	.uleb128 0
	.uleb128 .LEHB217-.LFB112
	.uleb128 .LEHE217-.LEHB217
	.uleb128 .L521-.LFB112
	.uleb128 0x1
	.uleb128 .LEHB218-.LFB112
	.uleb128 .LEHE218-.LEHB218
	.uleb128 0
	.uleb128 0
.LLSDACSE112:
	.byte	0x1
	.byte	0
	.align 4
	.long	DW.ref.__gnat_others_value-.
.LLSDATT112:
	.section	.text.main__L_5__B743b___finalizer.73
	.size	main__L_5__B743b___finalizer.73, .-main__L_5__B743b___finalizer.73
	.section	.text.main__B_6__B775b___finalizer.74,"ax",@progbits
	.align 2
	.type	main__B_6__B775b___finalizer.74, @function
main__B_6__B775b___finalizer.74:
.LFB113:
	.cfi_startproc
	.cfi_personality 0x9b,DW.ref.__gnat_personality_v0
	.cfi_lsda 0x1b,.LLSDA113
	pushq	%r14
	.cfi_def_cfa_offset 16
	.cfi_offset 14, -16
	pushq	%rbx
	.cfi_def_cfa_offset 24
	.cfi_offset 3, -24
.LEHB219:
	subq	$8, %rsp
	.cfi_def_cfa_offset 32
	movq	%r10, %rbx
	call	ada__exceptions__triggered_by_abort@PLT
	movl	%eax, %r14d
	call	*system__soft_links__abort_defer(%rip)
.LEHE219:
	addq	$32, %rbx
	movq	%rbx, %rdi
.LEHB220:
	call	system__finalization_primitives__finalize_master@PLT
.LEHE220:
	movl	$0, %ebx
.L528:
.LEHB221:
	call	*system__soft_links__abort_undefer(%rip)
	movl	%r14d, %eax
	xorl	$1, %eax
	testb	%al, %bl
	jne	.L531
	addq	$8, %rsp
	.cfi_remember_state
	.cfi_def_cfa_offset 24
	popq	%rbx
	.cfi_def_cfa_offset 16
	popq	%r14
	.cfi_def_cfa_offset 8
	ret
.L531:
	.cfi_restore_state
	movl	$208, %esi
	leaq	.LC65(%rip), %rdi
	call	__gnat_rcheck_PE_Finalize_Raised_Exception@PLT
.L529:
	movq	%rax, %rdi
	cmpq	$1, %rdx
	je	.L527
	call	_Unwind_Resume@PLT
.L527:
	movq	%rax, %rbx
	movq	%rax, %rdi
	call	__gnat_begin_handler_v1@PLT
	movq	%rax, %rsi
	movl	$0, %edx
	movq	%rbx, %rdi
	call	__gnat_end_handler_v1@PLT
.LEHE221:
	movl	$1, %ebx
	jmp	.L528
	.cfi_endproc
.LFE113:
	.section	.gcc_except_table.main__B_6__B775b___finalizer.74,"a",@progbits
	.align 4
.LLSDA113:
	.byte	0xff
	.byte	0x9b
	.uleb128 .LLSDATT113-.LLSDATTD113
.LLSDATTD113:
	.byte	0x1
	.uleb128 .LLSDACSE113-.LLSDACSB113
.LLSDACSB113:
	.uleb128 .LEHB219-.LFB113
	.uleb128 .LEHE219-.LEHB219
	.uleb128 0
	.uleb128 0
	.uleb128 .LEHB220-.LFB113
	.uleb128 .LEHE220-.LEHB220
	.uleb128 .L529-.LFB113
	.uleb128 0x1
	.uleb128 .LEHB221-.LFB113
	.uleb128 .LEHE221-.LEHB221
	.uleb128 0
	.uleb128 0
.LLSDACSE113:
	.byte	0x1
	.byte	0
	.align 4
	.long	DW.ref.__gnat_others_value-.
.LLSDATT113:
	.section	.text.main__B_6__B775b___finalizer.74
	.size	main__B_6__B775b___finalizer.74, .-main__B_6__B775b___finalizer.74
	.section	.text.main__B_6__B801b___finalizer.75,"ax",@progbits
	.align 2
	.type	main__B_6__B801b___finalizer.75, @function
main__B_6__B801b___finalizer.75:
.LFB114:
	.cfi_startproc
	.cfi_personality 0x9b,DW.ref.__gnat_personality_v0
	.cfi_lsda 0x1b,.LLSDA114
	pushq	%r14
	.cfi_def_cfa_offset 16
	.cfi_offset 14, -16
	pushq	%rbx
	.cfi_def_cfa_offset 24
	.cfi_offset 3, -24
.LEHB222:
	subq	$8, %rsp
	.cfi_def_cfa_offset 32
	movq	%r10, %rbx
	call	ada__exceptions__triggered_by_abort@PLT
	movl	%eax, %r14d
	call	*system__soft_links__abort_defer(%rip)
.LEHE222:
	addq	$16, %rbx
	movq	%rbx, %rdi
.LEHB223:
	call	system__finalization_primitives__finalize_master@PLT
.LEHE223:
	movl	$0, %ebx
.L536:
.LEHB224:
	call	*system__soft_links__abort_undefer(%rip)
	movl	%r14d, %eax
	xorl	$1, %eax
	testb	%al, %bl
	jne	.L539
	addq	$8, %rsp
	.cfi_remember_state
	.cfi_def_cfa_offset 24
	popq	%rbx
	.cfi_def_cfa_offset 16
	popq	%r14
	.cfi_def_cfa_offset 8
	ret
.L539:
	.cfi_restore_state
	movl	$210, %esi
	leaq	.LC65(%rip), %rdi
	call	__gnat_rcheck_PE_Finalize_Raised_Exception@PLT
.L537:
	movq	%rax, %rdi
	cmpq	$1, %rdx
	je	.L535
	call	_Unwind_Resume@PLT
.L535:
	movq	%rax, %rbx
	movq	%rax, %rdi
	call	__gnat_begin_handler_v1@PLT
	movq	%rax, %rsi
	movl	$0, %edx
	movq	%rbx, %rdi
	call	__gnat_end_handler_v1@PLT
.LEHE224:
	movl	$1, %ebx
	jmp	.L536
	.cfi_endproc
.LFE114:
	.section	.gcc_except_table.main__B_6__B801b___finalizer.75,"a",@progbits
	.align 4
.LLSDA114:
	.byte	0xff
	.byte	0x9b
	.uleb128 .LLSDATT114-.LLSDATTD114
.LLSDATTD114:
	.byte	0x1
	.uleb128 .LLSDACSE114-.LLSDACSB114
.LLSDACSB114:
	.uleb128 .LEHB222-.LFB114
	.uleb128 .LEHE222-.LEHB222
	.uleb128 0
	.uleb128 0
	.uleb128 .LEHB223-.LFB114
	.uleb128 .LEHE223-.LEHB223
	.uleb128 .L537-.LFB114
	.uleb128 0x1
	.uleb128 .LEHB224-.LFB114
	.uleb128 .LEHE224-.LEHB224
	.uleb128 0
	.uleb128 0
.LLSDACSE114:
	.byte	0x1
	.byte	0
	.align 4
	.long	DW.ref.__gnat_others_value-.
.LLSDATT114:
	.section	.text.main__B_6__B801b___finalizer.75
	.size	main__B_6__B801b___finalizer.75, .-main__B_6__B801b___finalizer.75
	.section	.text.main___finalizer.76,"ax",@progbits
	.align 2
	.type	main___finalizer.76, @function
main___finalizer.76:
.LFB115:
	.cfi_startproc
	.cfi_personality 0x9b,DW.ref.__gnat_personality_v0
	.cfi_lsda 0x1b,.LLSDA115
	pushq	%r14
	.cfi_def_cfa_offset 16
	.cfi_offset 14, -16
	pushq	%rbx
	.cfi_def_cfa_offset 24
	.cfi_offset 3, -24
.LEHB225:
	subq	$8, %rsp
	.cfi_def_cfa_offset 32
	movq	%r10, %rbx
	call	ada__exceptions__triggered_by_abort@PLT
	movl	%eax, %r14d
	call	*system__soft_links__abort_defer(%rip)
.LEHE225:
	movq	%rbx, %rdi
.LEHB226:
	call	system__finalization_primitives__finalize_master@PLT
.LEHE226:
	movl	$0, %ebx
.L544:
.LEHB227:
	call	*system__soft_links__abort_undefer(%rip)
	movl	%r14d, %eax
	xorl	$1, %eax
	testb	%al, %bl
	jne	.L547
	addq	$8, %rsp
	.cfi_remember_state
	.cfi_def_cfa_offset 24
	popq	%rbx
	.cfi_def_cfa_offset 16
	popq	%r14
	.cfi_def_cfa_offset 8
	ret
.L547:
	.cfi_restore_state
	movl	$35, %esi
	leaq	.LC65(%rip), %rdi
	call	__gnat_rcheck_PE_Finalize_Raised_Exception@PLT
.L545:
	movq	%rax, %rdi
	cmpq	$1, %rdx
	je	.L543
	call	_Unwind_Resume@PLT
.L543:
	movq	%rax, %rbx
	movq	%rax, %rdi
	call	__gnat_begin_handler_v1@PLT
	movq	%rax, %rsi
	movl	$0, %edx
	movq	%rbx, %rdi
	call	__gnat_end_handler_v1@PLT
.LEHE227:
	movl	$1, %ebx
	jmp	.L544
	.cfi_endproc
.LFE115:
	.section	.gcc_except_table.main___finalizer.76,"a",@progbits
	.align 4
.LLSDA115:
	.byte	0xff
	.byte	0x9b
	.uleb128 .LLSDATT115-.LLSDATTD115
.LLSDATTD115:
	.byte	0x1
	.uleb128 .LLSDACSE115-.LLSDACSB115
.LLSDACSB115:
	.uleb128 .LEHB225-.LFB115
	.uleb128 .LEHE225-.LEHB225
	.uleb128 0
	.uleb128 0
	.uleb128 .LEHB226-.LFB115
	.uleb128 .LEHE226-.LEHB226
	.uleb128 .L545-.LFB115
	.uleb128 0x1
	.uleb128 .LEHB227-.LFB115
	.uleb128 .LEHE227-.LEHB227
	.uleb128 0
	.uleb128 0
.LLSDACSE115:
	.byte	0x1
	.byte	0
	.align 4
	.long	DW.ref.__gnat_others_value-.
.LLSDATT115:
	.section	.text.main___finalizer.76
	.size	main___finalizer.76, .-main___finalizer.76
	.section	.text.main__univ__get_radius.36,"ax",@progbits
	.align 2
	.type	main__univ__get_radius.36, @function
main__univ__get_radius.36:
.LVL257:
.LFB77:
	.file 4 "/workspaces/HISE_Assignment_3/src/universe.ads"
	.loc 4 122 4 is_stmt 1 view -0
	.cfi_startproc
	.loc 4 122 4 is_stmt 0 view .LVU296
	pushq	%rbx
	.cfi_def_cfa_offset 16
	.cfi_offset 3, -16
	.loc 4 123 9 is_stmt 1 view .LVU297
	leal	-1(%rdx), %eax
	cmpl	$9, %eax
	ja	.L551
	movq	%rdi, %rbx
	.loc 4 123 23 discriminator 2 view .LVU298
	movslq	%edx, %rdx
	.loc 4 123 23 is_stmt 0 discriminator 2 view .LVU299
	leaq	(%rdx,%rdx,4), %rax
	salq	$5, %rax
	addq	%rax, %rsi
.LVL258:
	.loc 4 123 23 discriminator 2 view .LVU300
	movdqu	-32(%rsi), %xmm0
	movups	%xmm0, (%rdi)
	movq	-16(%rsi), %rax
	movq	-8(%rsi), %rdx
.LVL259:
	.loc 4 123 23 discriminator 2 view .LVU301
	movq	%rax, 16(%rdi)
	movq	%rdx, 24(%rdi)
	movl	$1, %esi
	call	ada__numerics__big_numbers__big_reals__big_realDA@PLT
.LVL260:
	.loc 4 122 4 is_stmt 1 view .LVU302
	movq	%rbx, %rax
	popq	%rbx
	.cfi_remember_state
	.cfi_def_cfa_offset 8
.LVL261:
	.loc 4 122 4 is_stmt 0 view .LVU303
	ret
.LVL262:
.L551:
	.cfi_restore_state
	.loc 4 123 9 is_stmt 1 discriminator 1 view .LVU304
	movl	$123, %esi
.LVL263:
	.loc 4 123 9 is_stmt 0 discriminator 1 view .LVU305
	leaq	.LC66(%rip), %rdi
.LVL264:
	.loc 4 123 9 discriminator 1 view .LVU306
	call	__gnat_rcheck_CE_Index_Check@PLT
.LVL265:
	.loc 4 123 9 discriminator 1 view .LVU307
	.cfi_endproc
.LFE77:
	.size	main__univ__get_radius.36, .-main__univ__get_radius.36
	.section	.text.main__univ__get_position.47,"ax",@progbits
	.align 2
	.type	main__univ__get_position.47, @function
main__univ__get_position.47:
.LVL266:
.LFB75:
	.loc 4 114 4 is_stmt 1 view -0
	.cfi_startproc
	.loc 4 114 4 is_stmt 0 view .LVU309
	pushq	%rbx
	.cfi_def_cfa_offset 16
	.cfi_offset 3, -16
	.loc 4 116 9 is_stmt 1 view .LVU310
	leal	-1(%rdx), %eax
	cmpl	$9, %eax
	ja	.L555
	movq	%rdi, %rbx
	.loc 4 116 23 discriminator 2 view .LVU311
	movslq	%edx, %rdx
	.loc 4 116 23 is_stmt 0 discriminator 2 view .LVU312
	leaq	-5(%rdx,%rdx,4), %rax
	salq	$5, %rax
	addq	%rax, %rsi
.LVL267:
	.loc 4 116 23 discriminator 2 view .LVU313
	movdqu	(%rsi), %xmm0
	movups	%xmm0, (%rdi)
	movdqu	16(%rsi), %xmm1
	movups	%xmm1, 16(%rdi)
	movdqu	32(%rsi), %xmm2
	movups	%xmm2, 32(%rdi)
	movq	48(%rsi), %rax
	movq	56(%rsi), %rdx
.LVL268:
	.loc 4 116 23 discriminator 2 view .LVU314
	movq	%rax, 48(%rdi)
	movq	%rdx, 56(%rdi)
	movl	$1, %esi
	call	spatial__positionDA@PLT
.LVL269:
	.loc 4 114 4 is_stmt 1 view .LVU315
	movq	%rbx, %rax
	popq	%rbx
	.cfi_remember_state
	.cfi_def_cfa_offset 8
.LVL270:
	.loc 4 114 4 is_stmt 0 view .LVU316
	ret
.LVL271:
.L555:
	.cfi_restore_state
	.loc 4 116 9 is_stmt 1 discriminator 1 view .LVU317
	movl	$116, %esi
.LVL272:
	.loc 4 116 9 is_stmt 0 discriminator 1 view .LVU318
	leaq	.LC66(%rip), %rdi
.LVL273:
	.loc 4 116 9 discriminator 1 view .LVU319
	call	__gnat_rcheck_CE_Index_Check@PLT
.LVL274:
	.loc 4 116 9 discriminator 1 view .LVU320
	.cfi_endproc
.LFE75:
	.size	main__univ__get_position.47, .-main__univ__get_position.47
	.section	.text.main__detect_bounces.35,"ax",@progbits
	.align 2
	.type	main__detect_bounces.35, @function
main__detect_bounces.35:
.LVL275:
.LFB95:
	.file 5 "/workspaces/HISE_Assignment_3/src/main.adb"
	.loc 5 112 4 is_stmt 1 view -0
	.cfi_startproc
	.cfi_personality 0x9b,DW.ref.__gnat_personality_v0
	.cfi_lsda 0x1b,.LLSDA95
	.loc 5 112 4 is_stmt 0 view .LVU322
	pushq	%r13
	.cfi_def_cfa_offset 16
	.cfi_offset 13, -16
	pushq	%r12
	.cfi_def_cfa_offset 24
	.cfi_offset 12, -24
	pushq	%rbp
	.cfi_def_cfa_offset 32
	.cfi_offset 6, -32
	pushq	%rbx
	.cfi_def_cfa_offset 40
	.cfi_offset 3, -40
.LEHB228:
	subq	$520, %rsp
	.cfi_def_cfa_offset 560
.LEHE228:
	movq	%rdi, %r13
	movq	%r10, %rbp
	.loc 5 112 4 is_stmt 1 discriminator 1 view .LVU323
	leaq	560(%rsp), %rax
	movq	%rax, 432(%rsp)
	.loc 5 113 7 view .LVU324
	movb	$0, 444(%rsp)
	movb	$0, 445(%rsp)
	movb	$0, 446(%rsp)
	movb	$0, 447(%rsp)
.LVL276:
.LBB576:
	.loc 5 115 11 view .LVU325
	movl	$1, %ebx
	jmp	.L565
.LVL277:
.L580:
.LBB577:
	.loc 5 117 13 discriminator 4 view .LVU326
	leaq	224(%rsp), %rcx
	leaq	448(%rsp), %rdx
	leaq	160(%rsp), %rdi
	movq	spatial__positionFD@GOTPCREL(%rip), %rsi
.LEHB229:
	call	system__finalization_primitives__attach_object_to_master@PLT
.LVL278:
	.loc 5 118 13 view .LVU327
	movq	$0, 480(%rsp)
	movq	$0, 488(%rsp)
	movq	$0, 496(%rsp)
.LVL279:
	.loc 5 118 42 discriminator 2 view .LVU328
	movq	%rsp, %rdi
	movl	%ebx, %edx
	movq	%r13, %rsi
	call	main__univ__get_radius.36
.LVL280:
	.loc 5 118 13 discriminator 4 view .LVU329
	leaq	224(%rsp), %rcx
	leaq	480(%rsp), %rdx
	movq	%rsp, %rdi
	movq	ada__numerics__big_numbers__big_reals__big_realFD@GOTPCREL(%rip), %rsi
	call	system__finalization_primitives__attach_object_to_master@PLT
.LVL281:
.LEHE229:
.LBB578:
	.loc 5 120 23 view .LVU330
	movq	$0, 336(%rsp)
	movq	$0, 344(%rsp)
	movq	$0, 352(%rsp)
.LVL282:
	.loc 5 120 34 discriminator 2 view .LVU331
	movq	$0, 360(%rsp)
	movq	$0, 368(%rsp)
	movq	$0, 376(%rsp)
.LVL283:
	.loc 5 121 30 view .LVU332
	movq	$0, 384(%rsp)
	movq	$0, 392(%rsp)
	movq	$0, 400(%rsp)
.LVL284:
	.loc 5 121 41 discriminator 3 view .LVU333
	movq	$0, 408(%rsp)
	movq	$0, 416(%rsp)
	movq	$0, 424(%rsp)
.LVL285:
.LBB579:
.LBB580:
	.file 6 "/workspaces/HISE_Assignment_3/src/spatial.ads"
	.loc 6 31 24 view .LVU334
	movdqa	160(%rsp), %xmm0
	movaps	%xmm0, 32(%rsp)
	movdqa	176(%rsp), %xmm1
	movaps	%xmm1, 48(%rsp)
	leaq	32(%rsp), %rdi
	movl	$1, %esi
.LEHB230:
	call	ada__numerics__big_numbers__big_reals__big_realDA@PLT
.LVL286:
	.loc 6 31 24 is_stmt 0 view .LVU335
.LBE580:
.LBE579:
	.loc 5 120 23 is_stmt 1 discriminator 5 view .LVU336
	leaq	336(%rsp), %rdx
	leaq	32(%rsp), %rdi
	movq	ada__numerics__big_numbers__big_reals__big_realFD@GOTPCREL(%rip), %rsi
	call	system__finalization_primitives__attach_object_to_node@PLT
.LVL287:
	.loc 5 120 34 discriminator 7 view .LVU337
	leaq	64(%rsp), %rdi
	movq	%rsp, %rdx
	leaq	32(%rsp), %rsi
	call	ada__numerics__big_numbers__big_reals__Oadd__2@PLT
.LVL288:
	.loc 5 120 34 is_stmt 0 discriminator 9 view .LVU338
	leaq	360(%rsp), %rdx
	leaq	64(%rsp), %rdi
	movq	ada__numerics__big_numbers__big_reals__big_realFD@GOTPCREL(%rip), %rsi
	call	system__finalization_primitives__attach_object_to_node@PLT
.LVL289:
	.loc 5 120 38 is_stmt 1 discriminator 11 view .LVU339
	leaq	2144(%rbp), %rsi
	leaq	64(%rsp), %rdi
	call	ada__numerics__big_numbers__big_reals__Ogt@PLT
.LVL290:
	movl	%eax, %r12d
	.loc 5 120 23 discriminator 13 view .LVU340
	leaq	336(%rsp), %rdi
	movq	ada__numerics__big_numbers__big_reals__big_realFD@GOTPCREL(%rip), %rsi
	call	system__finalization_primitives__finalize_object@PLT
.LVL291:
	.loc 5 120 34 discriminator 15 view .LVU341
	leaq	360(%rsp), %rdi
	movq	ada__numerics__big_numbers__big_reals__big_realFD@GOTPCREL(%rip), %rsi
	call	system__finalization_primitives__finalize_object@PLT
.LVL292:
	.loc 5 121 15 view .LVU342
	testb	%r12b, %r12b
	jne	.L558
.LVL293:
.LBB581:
.LBB582:
	.loc 6 31 24 view .LVU343
	movdqa	160(%rsp), %xmm4
	movaps	%xmm4, 96(%rsp)
	movdqa	176(%rsp), %xmm5
	movaps	%xmm5, 112(%rsp)
	leaq	96(%rsp), %rdi
	movl	$1, %esi
	call	ada__numerics__big_numbers__big_reals__big_realDA@PLT
.LVL294:
	.loc 6 31 24 is_stmt 0 view .LVU344
.LBE582:
.LBE581:
	.loc 5 121 30 is_stmt 1 discriminator 10 view .LVU345
	leaq	384(%rsp), %rdx
	leaq	96(%rsp), %rdi
	movq	ada__numerics__big_numbers__big_reals__big_realFD@GOTPCREL(%rip), %rsi
	call	system__finalization_primitives__attach_object_to_node@PLT
.LVL295:
	.loc 5 121 41 discriminator 13 view .LVU346
	leaq	128(%rsp), %rdi
	movq	%rsp, %rdx
	leaq	96(%rsp), %rsi
	call	ada__numerics__big_numbers__big_reals__Osubtract__2@PLT
.LVL296:
	.loc 5 121 41 is_stmt 0 discriminator 16 view .LVU347
	leaq	408(%rsp), %rdx
	leaq	128(%rsp), %rdi
	movq	ada__numerics__big_numbers__big_reals__big_realFD@GOTPCREL(%rip), %rsi
	call	system__finalization_primitives__attach_object_to_node@PLT
.LVL297:
	.loc 5 121 45 is_stmt 1 discriminator 19 view .LVU348
	leaq	2112(%rbp), %rsi
	leaq	128(%rsp), %rdi
	call	ada__numerics__big_numbers__big_reals__Olt@PLT
.LVL298:
	movl	%eax, %r12d
	.loc 5 121 45 is_stmt 0 discriminator 22 view .LVU349
	cmpb	$1, %al
	ja	.L574
	.loc 5 121 30 is_stmt 1 discriminator 24 view .LVU350
	leaq	384(%rsp), %rdi
	movq	ada__numerics__big_numbers__big_reals__big_realFD@GOTPCREL(%rip), %rsi
	call	system__finalization_primitives__finalize_object@PLT
.LVL299:
	jmp	.L575
.L574:
	.loc 5 121 45 discriminator 23 view .LVU351
	movl	$121, %esi
	leaq	.LC65(%rip), %rdi
	call	__gnat_rcheck_CE_Invalid_Data@PLT
.LVL300:
.LEHE230:
.L570:
	.loc 5 121 0 discriminator 31 view .LVU352
	movq	%rax, %rbx
.LVL301:
	.loc 5 121 0 is_stmt 0 discriminator 31 view .LVU353
	leaq	224(%rsp), %r10
.LEHB231:
	call	main__detect_bounces__B_2__B367b___finalizer.38
.LVL302:
.LEHE231:
	jmp	.L567
.LVL303:
.L575:
	.loc 5 121 41 is_stmt 1 discriminator 29 view .LVU354
	leaq	408(%rsp), %rdi
	movq	ada__numerics__big_numbers__big_reals__big_realFD@GOTPCREL(%rip), %rsi
.LEHB232:
	call	system__finalization_primitives__finalize_object@PLT
.LVL304:
.LEHE232:
	.loc 5 121 15 discriminator 32 view .LVU355
	testb	%r12b, %r12b
	je	.L560
.L558:
	.loc 5 121 0 discriminator 36 view .LVU356
	leaq	224(%rsp), %r10
.LEHB233:
	call	main__detect_bounces__B_2__B367b___finalizer.38
.LVL305:
.LBE578:
	.loc 5 123 32 view .LVU357
	movslq	%ebx, %rax
	movb	$1, 442(%rsp,%rax,2)
	jmp	.L561
.L560:
.LBB583:
	.loc 5 121 0 discriminator 36 view .LVU358
	leaq	224(%rsp), %r10
	call	main__detect_bounces__B_2__B367b___finalizer.38
.LVL306:
.LEHE233:
.L561:
	.loc 5 121 0 is_stmt 0 discriminator 36 view .LVU359
.LBE583:
.LBB584:
	.loc 5 125 23 is_stmt 1 view .LVU360
	movq	$0, 240(%rsp)
	movq	$0, 248(%rsp)
	movq	$0, 256(%rsp)
.LVL307:
	.loc 5 125 34 discriminator 2 view .LVU361
	movq	$0, 264(%rsp)
	movq	$0, 272(%rsp)
	movq	$0, 280(%rsp)
.LVL308:
	.loc 5 126 30 view .LVU362
	movq	$0, 288(%rsp)
	movq	$0, 296(%rsp)
	movq	$0, 304(%rsp)
.LVL309:
	.loc 5 126 41 discriminator 3 view .LVU363
	movq	$0, 312(%rsp)
	movq	$0, 320(%rsp)
	movq	$0, 328(%rsp)
.LVL310:
.LBB585:
.LBB586:
	.loc 6 34 24 view .LVU364
	movdqa	192(%rsp), %xmm2
	movaps	%xmm2, 32(%rsp)
	movdqa	208(%rsp), %xmm3
	movaps	%xmm3, 48(%rsp)
	leaq	32(%rsp), %rdi
	movl	$1, %esi
.LEHB234:
	call	ada__numerics__big_numbers__big_reals__big_realDA@PLT
.LVL311:
	.loc 6 34 24 is_stmt 0 view .LVU365
.LBE586:
.LBE585:
	.loc 5 125 23 is_stmt 1 discriminator 5 view .LVU366
	leaq	240(%rsp), %rdx
	leaq	32(%rsp), %rdi
	movq	ada__numerics__big_numbers__big_reals__big_realFD@GOTPCREL(%rip), %rsi
	call	system__finalization_primitives__attach_object_to_node@PLT
.LVL312:
	.loc 5 125 34 discriminator 7 view .LVU367
	leaq	64(%rsp), %rdi
	movq	%rsp, %rdx
	leaq	32(%rsp), %rsi
	call	ada__numerics__big_numbers__big_reals__Oadd__2@PLT
.LVL313:
	.loc 5 125 34 is_stmt 0 discriminator 9 view .LVU368
	leaq	264(%rsp), %rdx
	leaq	64(%rsp), %rdi
	movq	ada__numerics__big_numbers__big_reals__big_realFD@GOTPCREL(%rip), %rsi
	call	system__finalization_primitives__attach_object_to_node@PLT
.LVL314:
	.loc 5 125 38 is_stmt 1 discriminator 11 view .LVU369
	leaq	2080(%rbp), %rsi
	leaq	64(%rsp), %rdi
	call	ada__numerics__big_numbers__big_reals__Ogt@PLT
.LVL315:
	movl	%eax, %r12d
	.loc 5 125 23 discriminator 13 view .LVU370
	leaq	240(%rsp), %rdi
	movq	ada__numerics__big_numbers__big_reals__big_realFD@GOTPCREL(%rip), %rsi
	call	system__finalization_primitives__finalize_object@PLT
.LVL316:
	.loc 5 125 34 discriminator 15 view .LVU371
	leaq	264(%rsp), %rdi
	movq	ada__numerics__big_numbers__big_reals__big_realFD@GOTPCREL(%rip), %rsi
	call	system__finalization_primitives__finalize_object@PLT
.LVL317:
	.loc 5 126 15 view .LVU372
	testb	%r12b, %r12b
	jne	.L562
.LVL318:
.LBB587:
.LBB588:
	.loc 6 34 24 view .LVU373
	movdqa	192(%rsp), %xmm6
	movaps	%xmm6, 96(%rsp)
	movdqa	208(%rsp), %xmm7
	movaps	%xmm7, 112(%rsp)
	leaq	96(%rsp), %rdi
	movl	$1, %esi
	call	ada__numerics__big_numbers__big_reals__big_realDA@PLT
.LVL319:
	.loc 6 34 24 is_stmt 0 view .LVU374
.LBE588:
.LBE587:
	.loc 5 126 30 is_stmt 1 discriminator 10 view .LVU375
	leaq	288(%rsp), %rdx
	leaq	96(%rsp), %rdi
	movq	ada__numerics__big_numbers__big_reals__big_realFD@GOTPCREL(%rip), %rsi
	call	system__finalization_primitives__attach_object_to_node@PLT
.LVL320:
	.loc 5 126 41 discriminator 13 view .LVU376
	leaq	128(%rsp), %rdi
	movq	%rsp, %rdx
	leaq	96(%rsp), %rsi
	call	ada__numerics__big_numbers__big_reals__Osubtract__2@PLT
.LVL321:
	.loc 5 126 41 is_stmt 0 discriminator 16 view .LVU377
	leaq	312(%rsp), %rdx
	leaq	128(%rsp), %rdi
	movq	ada__numerics__big_numbers__big_reals__big_realFD@GOTPCREL(%rip), %rsi
	call	system__finalization_primitives__attach_object_to_node@PLT
.LVL322:
	.loc 5 126 45 is_stmt 1 discriminator 19 view .LVU378
	leaq	2048(%rbp), %rsi
	leaq	128(%rsp), %rdi
	call	ada__numerics__big_numbers__big_reals__Olt@PLT
.LVL323:
	movl	%eax, %r12d
	.loc 5 126 45 is_stmt 0 discriminator 22 view .LVU379
	cmpb	$1, %al
	ja	.L576
	.loc 5 126 30 is_stmt 1 discriminator 24 view .LVU380
	leaq	288(%rsp), %rdi
	movq	ada__numerics__big_numbers__big_reals__big_realFD@GOTPCREL(%rip), %rsi
	call	system__finalization_primitives__finalize_object@PLT
.LVL324:
	jmp	.L577
.L576:
	.loc 5 126 45 discriminator 23 view .LVU381
	movl	$126, %esi
	leaq	.LC65(%rip), %rdi
	call	__gnat_rcheck_CE_Invalid_Data@PLT
.LVL325:
.LEHE234:
.L571:
	.loc 5 126 0 discriminator 31 view .LVU382
	movq	%rax, %rbx
.LVL326:
	.loc 5 126 0 is_stmt 0 discriminator 31 view .LVU383
	leaq	224(%rsp), %r10
.LEHB235:
	call	main__detect_bounces__B_2__B400b___finalizer.39
.LVL327:
.LEHE235:
	jmp	.L567
.LVL328:
.L577:
	.loc 5 126 41 is_stmt 1 discriminator 29 view .LVU384
	leaq	312(%rsp), %rdi
	movq	ada__numerics__big_numbers__big_reals__big_realFD@GOTPCREL(%rip), %rsi
.LEHB236:
	call	system__finalization_primitives__finalize_object@PLT
.LVL329:
.LEHE236:
	.loc 5 126 15 discriminator 32 view .LVU385
	testb	%r12b, %r12b
	je	.L578
.L562:
	.loc 5 126 0 discriminator 36 view .LVU386
	leaq	224(%rsp), %r10
.LEHB237:
	call	main__detect_bounces__B_2__B400b___finalizer.39
.LVL330:
	jmp	.L579
.L578:
	leaq	224(%rsp), %r10
	call	main__detect_bounces__B_2__B400b___finalizer.39
.LVL331:
	jmp	.L564
.L579:
.LBE584:
	.loc 5 128 32 view .LVU387
	movslq	%ebx, %rax
	movb	$1, 443(%rsp,%rax,2)
.LEHE237:
.L564:
	.loc 5 130 0 view .LVU388
	leaq	224(%rsp), %r10
.LEHB238:
	call	main__detect_bounces__B_2___finalizer.40
.LVL332:
.LEHE238:
.LBE577:
	.loc 5 115 11 discriminator 2 view .LVU389
	addl	$1, %ebx
.LVL333:
.L565:
	.loc 5 115 11 is_stmt 0 discriminator 1 view .LVU390
	cmpl	$2, %ebx
	jg	.L557
.LVL334:
.LBB589:
	.loc 5 116 10 is_stmt 1 view .LVU391
	movb	$1, 224(%rsp)
	movb	$0, 225(%rsp)
	movb	$0, 226(%rsp)
	movq	$0, 232(%rsp)
.LVL335:
	.loc 5 117 13 view .LVU392
	movq	$0, 448(%rsp)
	movq	$0, 456(%rsp)
	movq	$0, 464(%rsp)
.LVL336:
	.loc 5 117 50 discriminator 2 view .LVU393
	leaq	160(%rsp), %rdi
	movl	%ebx, %edx
	movq	%r13, %rsi
.LEHB239:
	call	main__univ__get_position.47
.LVL337:
.LEHE239:
	jmp	.L580
.LVL338:
.L569:
	.loc 5 130 0 discriminator 4 view .LVU394
	movq	%rax, %rbx
.L567:
	leaq	224(%rsp), %r10
.LEHB240:
	call	main__detect_bounces__B_2___finalizer.40
.LVL339:
	movq	%rbx, %rdi
	call	_Unwind_Resume@PLT
.LVL340:
.L557:
	.loc 5 130 0 is_stmt 0 discriminator 4 view .LVU395
.LBE589:
.LBE576:
	.loc 5 132 7 is_stmt 1 view .LVU396
	movl	444(%rsp), %eax
	.loc 5 133 8 view .LVU397
	addq	$520, %rsp
	.cfi_def_cfa_offset 40
.LEHE240:
	popq	%rbx
	.cfi_def_cfa_offset 32
.LVL341:
	.loc 5 133 8 is_stmt 0 view .LVU398
	popq	%rbp
	.cfi_def_cfa_offset 24
	popq	%r12
	.cfi_def_cfa_offset 16
	popq	%r13
	.cfi_def_cfa_offset 8
.LVL342:
	.loc 5 133 8 view .LVU399
	ret
	.cfi_endproc
.LFE95:
	.section	.gcc_except_table.main__detect_bounces.35,"a",@progbits
.LLSDA95:
	.byte	0xff
	.byte	0xff
	.byte	0x1
	.uleb128 .LLSDACSE95-.LLSDACSB95
.LLSDACSB95:
	.uleb128 .LEHB228-.LFB95
	.uleb128 .LEHE228-.LEHB228
	.uleb128 0
	.uleb128 0
	.uleb128 .LEHB229-.LFB95
	.uleb128 .LEHE229-.LEHB229
	.uleb128 .L569-.LFB95
	.uleb128 0
	.uleb128 .LEHB230-.LFB95
	.uleb128 .LEHE230-.LEHB230
	.uleb128 .L570-.LFB95
	.uleb128 0
	.uleb128 .LEHB231-.LFB95
	.uleb128 .LEHE231-.LEHB231
	.uleb128 .L569-.LFB95
	.uleb128 0
	.uleb128 .LEHB232-.LFB95
	.uleb128 .LEHE232-.LEHB232
	.uleb128 .L570-.LFB95
	.uleb128 0
	.uleb128 .LEHB233-.LFB95
	.uleb128 .LEHE233-.LEHB233
	.uleb128 .L569-.LFB95
	.uleb128 0
	.uleb128 .LEHB234-.LFB95
	.uleb128 .LEHE234-.LEHB234
	.uleb128 .L571-.LFB95
	.uleb128 0
	.uleb128 .LEHB235-.LFB95
	.uleb128 .LEHE235-.LEHB235
	.uleb128 .L569-.LFB95
	.uleb128 0
	.uleb128 .LEHB236-.LFB95
	.uleb128 .LEHE236-.LEHB236
	.uleb128 .L571-.LFB95
	.uleb128 0
	.uleb128 .LEHB237-.LFB95
	.uleb128 .LEHE237-.LEHB237
	.uleb128 .L569-.LFB95
	.uleb128 0
	.uleb128 .LEHB238-.LFB95
	.uleb128 .LEHE238-.LEHB238
	.uleb128 0
	.uleb128 0
	.uleb128 .LEHB239-.LFB95
	.uleb128 .LEHE239-.LEHB239
	.uleb128 .L569-.LFB95
	.uleb128 0
	.uleb128 .LEHB240-.LFB95
	.uleb128 .LEHE240-.LEHB240
	.uleb128 0
	.uleb128 0
.LLSDACSE95:
	.section	.text.main__detect_bounces.35
	.size	main__detect_bounces.35, .-main__detect_bounces.35
	.section	.text.main__univ__get_velocity.49,"ax",@progbits
	.align 2
	.type	main__univ__get_velocity.49, @function
main__univ__get_velocity.49:
.LVL343:
.LFB76:
	.loc 4 118 4 is_stmt 1 view -0
	.cfi_startproc
	.loc 4 118 4 is_stmt 0 view .LVU401
	pushq	%rbx
	.cfi_def_cfa_offset 16
	.cfi_offset 3, -16
	.loc 4 120 9 is_stmt 1 view .LVU402
	leal	-1(%rdx), %eax
	cmpl	$9, %eax
	ja	.L584
	movq	%rdi, %rbx
	.loc 4 120 23 discriminator 2 view .LVU403
	movslq	%edx, %rdx
	.loc 4 120 23 is_stmt 0 discriminator 2 view .LVU404
	leaq	(%rdx,%rdx,4), %rax
	salq	$5, %rax
	addq	%rax, %rsi
.LVL344:
	.loc 4 120 23 discriminator 2 view .LVU405
	leaq	-96(%rsi), %rax
	movq	-88(%rsi), %rdi
.LVL345:
	.loc 4 120 23 discriminator 2 view .LVU406
	movq	-96(%rsi), %rsi
	movq	%rsi, (%rbx)
	movq	%rdi, 8(%rbx)
	movdqu	16(%rax), %xmm0
	movups	%xmm0, 16(%rbx)
	movdqu	32(%rax), %xmm1
	movups	%xmm1, 32(%rbx)
	movq	56(%rax), %rdx
.LVL346:
	.loc 4 120 23 discriminator 2 view .LVU407
	movq	48(%rax), %rax
	movq	%rax, 48(%rbx)
	movq	%rdx, 56(%rbx)
	movl	$1, %esi
	movq	%rbx, %rdi
	call	spatial__velocityDA@PLT
.LVL347:
	.loc 4 118 4 is_stmt 1 view .LVU408
	movq	%rbx, %rax
	popq	%rbx
	.cfi_remember_state
	.cfi_def_cfa_offset 8
.LVL348:
	.loc 4 118 4 is_stmt 0 view .LVU409
	ret
.LVL349:
.L584:
	.cfi_restore_state
	.loc 4 120 9 is_stmt 1 discriminator 1 view .LVU410
	movl	$120, %esi
.LVL350:
	.loc 4 120 9 is_stmt 0 discriminator 1 view .LVU411
	leaq	.LC66(%rip), %rdi
.LVL351:
	.loc 4 120 9 discriminator 1 view .LVU412
	call	__gnat_rcheck_CE_Index_Check@PLT
.LVL352:
	.loc 4 120 9 discriminator 1 view .LVU413
	.cfi_endproc
.LFE76:
	.size	main__univ__get_velocity.49, .-main__univ__get_velocity.49
	.section	.text.main__univ__reflect_velocity_x.41,"ax",@progbits
	.align 2
	.type	main__univ__reflect_velocity_x.41, @function
main__univ__reflect_velocity_x.41:
.LVL353:
.LFB8:
	.loc 1 40 4 is_stmt 1 view -0
	.cfi_startproc
	.cfi_personality 0x9b,DW.ref.__gnat_personality_v0
	.cfi_lsda 0x1b,.LLSDA8
	.loc 1 40 4 is_stmt 0 view .LVU415
	pushq	%r12
	.cfi_def_cfa_offset 16
	.cfi_offset 12, -16
	pushq	%rbp
	.cfi_def_cfa_offset 24
	.cfi_offset 6, -24
	pushq	%rbx
	.cfi_def_cfa_offset 32
	.cfi_offset 3, -32
.LEHB241:
	subq	$864, %rsp
	.cfi_def_cfa_offset 896
.LEHE241:
	.loc 1 40 4 is_stmt 1 discriminator 1 view .LVU416
	leaq	896(%rsp), %rax
	movq	%rax, 784(%rsp)
	.loc 1 42 8 view .LVU417
	leal	-1(%rsi), %eax
	cmpl	$9, %eax
	ja	.L600
	movq	%rdi, %rbp
	movl	%esi, %ebx
.LVL354:
.LBB590:
	.loc 1 42 27 discriminator 2 view .LVU418
	movb	$1, 768(%rsp)
	movb	$0, 769(%rsp)
	movb	$0, 770(%rsp)
	movq	$0, 776(%rsp)
.LVL355:
	.loc 1 42 52 discriminator 6 view .LVU419
	movq	$0, 800(%rsp)
	movq	$0, 808(%rsp)
	movq	$0, 816(%rsp)
.LVL356:
	.loc 1 42 52 is_stmt 0 discriminator 9 view .LVU420
	movq	%rsp, %rdi
.LVL357:
	.loc 1 42 52 discriminator 9 view .LVU421
	movl	%esi, %edx
	movq	%rbp, %rsi
.LVL358:
.LEHB242:
	.loc 1 42 52 discriminator 9 view .LVU422
	call	main__univ__get_velocity.49
.LVL359:
.LEHE242:
	.loc 1 42 52 discriminator 9 view .LVU423
	jmp	.L601
.LVL360:
.L600:
	.loc 1 42 52 discriminator 9 view .LVU424
.LBE590:
	.loc 1 42 8 is_stmt 1 discriminator 1 view .LVU425
	movl	$42, %esi
.LVL361:
	.loc 1 42 8 is_stmt 0 discriminator 1 view .LVU426
	leaq	.LC69(%rip), %rdi
.LVL362:
.LEHB243:
	.loc 1 42 8 discriminator 1 view .LVU427
	call	__gnat_rcheck_CE_Index_Check@PLT
.LVL363:
.LEHE243:
.L601:
.LBB593:
	.loc 1 42 52 is_stmt 1 discriminator 12 view .LVU428
	leaq	768(%rsp), %rcx
	leaq	800(%rsp), %rdx
	movq	%rsp, %rdi
	movq	spatial__velocityFD@GOTPCREL(%rip), %rsi
.LEHB244:
	call	system__finalization_primitives__attach_object_to_master@PLT
.LVL364:
	.loc 1 42 37 discriminator 15 view .LVU429
	movq	$0, 832(%rsp)
	movq	$0, 840(%rsp)
	movq	$0, 848(%rsp)
.LVL365:
	.loc 1 42 37 is_stmt 0 discriminator 18 view .LVU430
	leaq	64(%rsp), %rdi
	movq	%rsp, %rsi
	call	spatial__negate_vel_x@PLT
.LVL366:
	.loc 1 42 37 discriminator 21 view .LVU431
	leaq	64(%rsp), %r12
	leaq	768(%rsp), %rcx
	leaq	832(%rsp), %rdx
	movq	spatial__velocityFD@GOTPCREL(%rip), %rsi
	movq	%r12, %rdi
	call	system__finalization_primitives__attach_object_to_master@PLT
.LVL367:
.LEHE244:
.LEHB245:
	.loc 1 42 27 is_stmt 1 discriminator 24 view .LVU432
	call	*system__soft_links__abort_defer(%rip)
.LVL368:
.LEHE245:
.LBB591:
	.loc 1 42 27 is_stmt 0 discriminator 27 view .LVU433
	movslq	%ebx, %rbx
	.loc 1 42 27 discriminator 27 view .LVU434
	leaq	(%rbx,%rbx,4), %rax
	salq	$5, %rax
	leaq	-96(%rbp,%rax), %rax
	cmpq	%rax, %r12
	je	.L587
	.loc 1 42 22 is_stmt 1 discriminator 28 view .LVU435
	leaq	(%rbx,%rbx,4), %rax
	salq	$5, %rax
	leaq	-96(%rbp,%rax), %r12
	movl	$1, %esi
	movq	%r12, %rdi
.LEHB246:
	call	spatial__velocityDF@PLT
.LVL369:
	.loc 1 42 27 discriminator 31 view .LVU436
	leaq	(%rbx,%rbx,4), %rax
	salq	$5, %rax
	addq	%rbp, %rax
	movdqa	64(%rsp), %xmm0
	movups	%xmm0, -96(%rax)
	movdqa	80(%rsp), %xmm1
	movups	%xmm1, -80(%rax)
	movdqa	96(%rsp), %xmm2
	movups	%xmm2, -64(%rax)
	movdqa	112(%rsp), %xmm3
	movups	%xmm3, -48(%rax)
	.loc 1 42 22 discriminator 32 view .LVU437
	movl	$1, %esi
	movq	%r12, %rdi
	call	spatial__velocityDA@PLT
.LVL370:
.LEHE246:
.L587:
.LEHB247:
.LBE591:
	.loc 1 42 0 discriminator 34 view .LVU438
	call	system__standard_library__abort_undefer_direct@PLT
.LVL371:
	jmp	.L602
.L595:
	movq	%rax, %rbp
.LVL372:
	.loc 1 42 0 is_stmt 0 discriminator 34 view .LVU439
	cmpq	$1, %rdx
	je	.L589
	movq	%rax, %rbx
.LVL373:
.L590:
	.loc 1 42 0 discriminator 26 view .LVU440
	call	system__standard_library__abort_undefer_direct@PLT
.LVL374:
.LEHE247:
	jmp	.L592
.LVL375:
.L589:
	.loc 1 42 0 discriminator 26 view .LVU441
	movq	%rax, %rdi
	call	__gnat_begin_handler_v1@PLT
.LVL376:
	.loc 1 42 0 discriminator 26 view .LVU442
	movq	%rax, %r12
.LVL377:
	.loc 1 42 0 discriminator 26 view .LVU443
	leaq	128(%rsp), %rdi
	movq	%rbp, %rsi
.LEHB248:
	call	__gnat_set_exception_parameter@PLT
.LVL378:
.LBB592:
	.loc 1 42 27 is_stmt 1 view .LVU444
	leaq	128(%rsp), %rdi
	call	__gnat_raise_from_controlled_operation@PLT
.LVL379:
.LEHE248:
.L596:
	.loc 1 42 27 is_stmt 0 view .LVU445
	movq	%rax, %rbx
.LVL380:
	.loc 1 42 27 view .LVU446
	movq	%rax, %rdx
	movq	%r12, %rsi
	movq	%rbp, %rdi
.LEHB249:
	call	__gnat_end_handler_v1@PLT
.LVL381:
.LEHE249:
	.loc 1 42 27 view .LVU447
	jmp	.L590
.LVL382:
.L594:
	.loc 1 42 27 view .LVU448
.LBE592:
	.loc 1 42 0 is_stmt 1 discriminator 26 view .LVU449
	movq	%rax, %rbx
	jmp	.L590
.L593:
	.loc 1 42 0 is_stmt 0 discriminator 41 view .LVU450
	movq	%rax, %rbx
.L592:
	leaq	768(%rsp), %r10
.LEHB250:
	call	main__univ__reflect_velocity_x__B942b___finalizer.43
.LVL383:
	movq	%rbx, %rdi
	call	_Unwind_Resume@PLT
.LVL384:
.L602:
	.loc 1 42 0 view .LVU451
	leaq	768(%rsp), %r10
	call	main__univ__reflect_velocity_x__B942b___finalizer.43
.LVL385:
.LBE593:
	.loc 1 43 8 is_stmt 1 view .LVU452
	addq	$864, %rsp
	.cfi_def_cfa_offset 32
.LEHE250:
	popq	%rbx
	.cfi_def_cfa_offset 24
.LVL386:
	.loc 1 43 8 is_stmt 0 view .LVU453
	popq	%rbp
	.cfi_def_cfa_offset 16
.LVL387:
	.loc 1 43 8 view .LVU454
	popq	%r12
	.cfi_def_cfa_offset 8
	ret
	.cfi_endproc
.LFE8:
	.section	.gcc_except_table.main__univ__reflect_velocity_x.41,"a",@progbits
	.align 4
.LLSDA8:
	.byte	0xff
	.byte	0x9b
	.uleb128 .LLSDATT8-.LLSDATTD8
.LLSDATTD8:
	.byte	0x1
	.uleb128 .LLSDACSE8-.LLSDACSB8
.LLSDACSB8:
	.uleb128 .LEHB241-.LFB8
	.uleb128 .LEHE241-.LEHB241
	.uleb128 0
	.uleb128 0
	.uleb128 .LEHB242-.LFB8
	.uleb128 .LEHE242-.LEHB242
	.uleb128 .L593-.LFB8
	.uleb128 0
	.uleb128 .LEHB243-.LFB8
	.uleb128 .LEHE243-.LEHB243
	.uleb128 0
	.uleb128 0
	.uleb128 .LEHB244-.LFB8
	.uleb128 .LEHE244-.LEHB244
	.uleb128 .L593-.LFB8
	.uleb128 0
	.uleb128 .LEHB245-.LFB8
	.uleb128 .LEHE245-.LEHB245
	.uleb128 .L594-.LFB8
	.uleb128 0
	.uleb128 .LEHB246-.LFB8
	.uleb128 .LEHE246-.LEHB246
	.uleb128 .L595-.LFB8
	.uleb128 0x3
	.uleb128 .LEHB247-.LFB8
	.uleb128 .LEHE247-.LEHB247
	.uleb128 .L593-.LFB8
	.uleb128 0
	.uleb128 .LEHB248-.LFB8
	.uleb128 .LEHE248-.LEHB248
	.uleb128 .L596-.LFB8
	.uleb128 0
	.uleb128 .LEHB249-.LFB8
	.uleb128 .LEHE249-.LEHB249
	.uleb128 .L594-.LFB8
	.uleb128 0
	.uleb128 .LEHB250-.LFB8
	.uleb128 .LEHE250-.LEHB250
	.uleb128 0
	.uleb128 0
.LLSDACSE8:
	.byte	0
	.byte	0
	.byte	0x1
	.byte	0x7d
	.align 4
	.long	DW.ref.__gnat_others_value-.
.LLSDATT8:
	.section	.text.main__univ__reflect_velocity_x.41
	.size	main__univ__reflect_velocity_x.41, .-main__univ__reflect_velocity_x.41
	.section	.text.main__univ__reflect_velocity_y.44,"ax",@progbits
	.align 2
	.type	main__univ__reflect_velocity_y.44, @function
main__univ__reflect_velocity_y.44:
.LVL388:
.LFB10:
	.loc 1 45 4 is_stmt 1 view -0
	.cfi_startproc
	.cfi_personality 0x9b,DW.ref.__gnat_personality_v0
	.cfi_lsda 0x1b,.LLSDA10
	.loc 1 45 4 is_stmt 0 view .LVU456
	pushq	%r12
	.cfi_def_cfa_offset 16
	.cfi_offset 12, -16
	pushq	%rbp
	.cfi_def_cfa_offset 24
	.cfi_offset 6, -24
	pushq	%rbx
	.cfi_def_cfa_offset 32
	.cfi_offset 3, -32
.LEHB251:
	subq	$864, %rsp
	.cfi_def_cfa_offset 896
.LEHE251:
	.loc 1 45 4 is_stmt 1 discriminator 1 view .LVU457
	leaq	896(%rsp), %rax
	movq	%rax, 784(%rsp)
	.loc 1 47 8 view .LVU458
	leal	-1(%rsi), %eax
	cmpl	$9, %eax
	ja	.L618
	movq	%rdi, %rbp
	movl	%esi, %ebx
.LVL389:
.LBB594:
	.loc 1 47 27 discriminator 2 view .LVU459
	movb	$1, 768(%rsp)
	movb	$0, 769(%rsp)
	movb	$0, 770(%rsp)
	movq	$0, 776(%rsp)
.LVL390:
	.loc 1 47 52 discriminator 6 view .LVU460
	movq	$0, 800(%rsp)
	movq	$0, 808(%rsp)
	movq	$0, 816(%rsp)
.LVL391:
	.loc 1 47 52 is_stmt 0 discriminator 9 view .LVU461
	movq	%rsp, %rdi
.LVL392:
	.loc 1 47 52 discriminator 9 view .LVU462
	movl	%esi, %edx
	movq	%rbp, %rsi
.LVL393:
.LEHB252:
	.loc 1 47 52 discriminator 9 view .LVU463
	call	main__univ__get_velocity.49
.LVL394:
.LEHE252:
	.loc 1 47 52 discriminator 9 view .LVU464
	jmp	.L619
.LVL395:
.L618:
	.loc 1 47 52 discriminator 9 view .LVU465
.LBE594:
	.loc 1 47 8 is_stmt 1 discriminator 1 view .LVU466
	movl	$47, %esi
.LVL396:
	.loc 1 47 8 is_stmt 0 discriminator 1 view .LVU467
	leaq	.LC69(%rip), %rdi
.LVL397:
.LEHB253:
	.loc 1 47 8 discriminator 1 view .LVU468
	call	__gnat_rcheck_CE_Index_Check@PLT
.LVL398:
.LEHE253:
.L619:
.LBB597:
	.loc 1 47 52 is_stmt 1 discriminator 12 view .LVU469
	leaq	768(%rsp), %rcx
	leaq	800(%rsp), %rdx
	movq	%rsp, %rdi
	movq	spatial__velocityFD@GOTPCREL(%rip), %rsi
.LEHB254:
	call	system__finalization_primitives__attach_object_to_master@PLT
.LVL399:
	.loc 1 47 37 discriminator 15 view .LVU470
	movq	$0, 832(%rsp)
	movq	$0, 840(%rsp)
	movq	$0, 848(%rsp)
.LVL400:
	.loc 1 47 37 is_stmt 0 discriminator 18 view .LVU471
	leaq	64(%rsp), %rdi
	movq	%rsp, %rsi
	call	spatial__negate_vel_y@PLT
.LVL401:
	.loc 1 47 37 discriminator 21 view .LVU472
	leaq	64(%rsp), %r12
	leaq	768(%rsp), %rcx
	leaq	832(%rsp), %rdx
	movq	spatial__velocityFD@GOTPCREL(%rip), %rsi
	movq	%r12, %rdi
	call	system__finalization_primitives__attach_object_to_master@PLT
.LVL402:
.LEHE254:
.LEHB255:
	.loc 1 47 27 is_stmt 1 discriminator 24 view .LVU473
	call	*system__soft_links__abort_defer(%rip)
.LVL403:
.LEHE255:
.LBB595:
	.loc 1 47 27 is_stmt 0 discriminator 27 view .LVU474
	movslq	%ebx, %rbx
	.loc 1 47 27 discriminator 27 view .LVU475
	leaq	(%rbx,%rbx,4), %rax
	salq	$5, %rax
	leaq	-96(%rbp,%rax), %rax
	cmpq	%rax, %r12
	je	.L605
	.loc 1 47 22 is_stmt 1 discriminator 28 view .LVU476
	leaq	(%rbx,%rbx,4), %rax
	salq	$5, %rax
	leaq	-96(%rbp,%rax), %r12
	movl	$1, %esi
	movq	%r12, %rdi
.LEHB256:
	call	spatial__velocityDF@PLT
.LVL404:
	.loc 1 47 27 discriminator 31 view .LVU477
	leaq	(%rbx,%rbx,4), %rax
	salq	$5, %rax
	addq	%rbp, %rax
	movdqa	64(%rsp), %xmm0
	movups	%xmm0, -96(%rax)
	movdqa	80(%rsp), %xmm1
	movups	%xmm1, -80(%rax)
	movdqa	96(%rsp), %xmm2
	movups	%xmm2, -64(%rax)
	movdqa	112(%rsp), %xmm3
	movups	%xmm3, -48(%rax)
	.loc 1 47 22 discriminator 32 view .LVU478
	movl	$1, %esi
	movq	%r12, %rdi
	call	spatial__velocityDA@PLT
.LVL405:
.LEHE256:
.L605:
.LEHB257:
.LBE595:
	.loc 1 47 0 discriminator 34 view .LVU479
	call	system__standard_library__abort_undefer_direct@PLT
.LVL406:
	jmp	.L620
.L613:
	movq	%rax, %rbp
.LVL407:
	.loc 1 47 0 is_stmt 0 discriminator 34 view .LVU480
	cmpq	$1, %rdx
	je	.L607
	movq	%rax, %rbx
.LVL408:
.L608:
	.loc 1 47 0 discriminator 26 view .LVU481
	call	system__standard_library__abort_undefer_direct@PLT
.LVL409:
.LEHE257:
	jmp	.L610
.LVL410:
.L607:
	.loc 1 47 0 discriminator 26 view .LVU482
	movq	%rax, %rdi
	call	__gnat_begin_handler_v1@PLT
.LVL411:
	.loc 1 47 0 discriminator 26 view .LVU483
	movq	%rax, %r12
.LVL412:
	.loc 1 47 0 discriminator 26 view .LVU484
	leaq	128(%rsp), %rdi
	movq	%rbp, %rsi
.LEHB258:
	call	__gnat_set_exception_parameter@PLT
.LVL413:
.LBB596:
	.loc 1 47 27 is_stmt 1 view .LVU485
	leaq	128(%rsp), %rdi
	call	__gnat_raise_from_controlled_operation@PLT
.LVL414:
.LEHE258:
.L614:
	.loc 1 47 27 is_stmt 0 view .LVU486
	movq	%rax, %rbx
.LVL415:
	.loc 1 47 27 view .LVU487
	movq	%rax, %rdx
	movq	%r12, %rsi
	movq	%rbp, %rdi
.LEHB259:
	call	__gnat_end_handler_v1@PLT
.LVL416:
.LEHE259:
	.loc 1 47 27 view .LVU488
	jmp	.L608
.LVL417:
.L612:
	.loc 1 47 27 view .LVU489
.LBE596:
	.loc 1 47 0 is_stmt 1 discriminator 26 view .LVU490
	movq	%rax, %rbx
	jmp	.L608
.L611:
	.loc 1 47 0 is_stmt 0 discriminator 41 view .LVU491
	movq	%rax, %rbx
.L610:
	leaq	768(%rsp), %r10
.LEHB260:
	call	main__univ__reflect_velocity_y__B960b___finalizer.46
.LVL418:
	movq	%rbx, %rdi
	call	_Unwind_Resume@PLT
.LVL419:
.L620:
	.loc 1 47 0 view .LVU492
	leaq	768(%rsp), %r10
	call	main__univ__reflect_velocity_y__B960b___finalizer.46
.LVL420:
.LBE597:
	.loc 1 48 8 is_stmt 1 view .LVU493
	addq	$864, %rsp
	.cfi_def_cfa_offset 32
.LEHE260:
	popq	%rbx
	.cfi_def_cfa_offset 24
.LVL421:
	.loc 1 48 8 is_stmt 0 view .LVU494
	popq	%rbp
	.cfi_def_cfa_offset 16
.LVL422:
	.loc 1 48 8 view .LVU495
	popq	%r12
	.cfi_def_cfa_offset 8
	ret
	.cfi_endproc
.LFE10:
	.section	.gcc_except_table.main__univ__reflect_velocity_y.44,"a",@progbits
	.align 4
.LLSDA10:
	.byte	0xff
	.byte	0x9b
	.uleb128 .LLSDATT10-.LLSDATTD10
.LLSDATTD10:
	.byte	0x1
	.uleb128 .LLSDACSE10-.LLSDACSB10
.LLSDACSB10:
	.uleb128 .LEHB251-.LFB10
	.uleb128 .LEHE251-.LEHB251
	.uleb128 0
	.uleb128 0
	.uleb128 .LEHB252-.LFB10
	.uleb128 .LEHE252-.LEHB252
	.uleb128 .L611-.LFB10
	.uleb128 0
	.uleb128 .LEHB253-.LFB10
	.uleb128 .LEHE253-.LEHB253
	.uleb128 0
	.uleb128 0
	.uleb128 .LEHB254-.LFB10
	.uleb128 .LEHE254-.LEHB254
	.uleb128 .L611-.LFB10
	.uleb128 0
	.uleb128 .LEHB255-.LFB10
	.uleb128 .LEHE255-.LEHB255
	.uleb128 .L612-.LFB10
	.uleb128 0
	.uleb128 .LEHB256-.LFB10
	.uleb128 .LEHE256-.LEHB256
	.uleb128 .L613-.LFB10
	.uleb128 0x3
	.uleb128 .LEHB257-.LFB10
	.uleb128 .LEHE257-.LEHB257
	.uleb128 .L611-.LFB10
	.uleb128 0
	.uleb128 .LEHB258-.LFB10
	.uleb128 .LEHE258-.LEHB258
	.uleb128 .L614-.LFB10
	.uleb128 0
	.uleb128 .LEHB259-.LFB10
	.uleb128 .LEHE259-.LEHB259
	.uleb128 .L612-.LFB10
	.uleb128 0
	.uleb128 .LEHB260-.LFB10
	.uleb128 .LEHE260-.LEHB260
	.uleb128 0
	.uleb128 0
.LLSDACSE10:
	.byte	0
	.byte	0
	.byte	0x1
	.byte	0x7d
	.align 4
	.long	DW.ref.__gnat_others_value-.
.LLSDATT10:
	.section	.text.main__univ__reflect_velocity_y.44
	.size	main__univ__reflect_velocity_y.44, .-main__univ__reflect_velocity_y.44
	.section	.text.main__univ__add_item.58,"ax",@progbits
	.align 2
	.type	main__univ__add_item.58, @function
main__univ__add_item.58:
.LVL423:
.LFB6:
	.loc 1 21 4 is_stmt 1 view -0
	.cfi_startproc
	.cfi_personality 0x9b,DW.ref.__gnat_personality_v0
	.cfi_lsda 0x1b,.LLSDA6
	.loc 1 21 4 is_stmt 0 view .LVU497
	pushq	%r13
	.cfi_def_cfa_offset 16
	.cfi_offset 13, -16
	pushq	%r12
	.cfi_def_cfa_offset 24
	.cfi_offset 12, -24
	pushq	%rbp
	.cfi_def_cfa_offset 32
	.cfi_offset 6, -32
	pushq	%rbx
	.cfi_def_cfa_offset 40
	.cfi_offset 3, -40
.LEHB261:
	subq	$840, %rsp
	.cfi_def_cfa_offset 880
.LEHE261:
	movq	%rdi, %rbx
	movq	%rsi, %r12
	movq	%rdx, %rbp
	movq	%rcx, %r13
	.loc 1 21 4 is_stmt 1 discriminator 1 view .LVU498
	leaq	880(%rsp), %rax
	movq	%rax, 24(%rsp)
.LVL424:
	.loc 1 21 4 is_stmt 0 discriminator 1 view .LVU499
	movq	$0, (%rsp)
	movq	$0, 8(%rsp)
	movq	$0, 16(%rsp)
.LVL425:
.LEHB262:
	.loc 1 27 35 is_stmt 1 view .LVU500
	call	*system__soft_links__abort_defer(%rip)
.LVL426:
	.loc 1 27 35 is_stmt 0 discriminator 3 view .LVU501
	movdqu	(%r12), %xmm0
	movaps	%xmm0, 672(%rsp)
	movdqu	16(%r12), %xmm1
	movaps	%xmm1, 688(%rsp)
	movdqu	32(%r12), %xmm2
	movaps	%xmm2, 704(%rsp)
	movq	48(%r12), %rax
	movq	56(%r12), %rdx
	movq	%rax, 720(%rsp)
	movq	%rdx, 728(%rsp)
	leaq	672(%rsp), %rdi
	movl	$1, %esi
	call	spatial__positionDA@PLT
.LVL427:
.LEHE262:
.LEHB263:
	.loc 1 27 0 is_stmt 1 discriminator 6 view .LVU502
	call	system__standard_library__abort_undefer_direct@PLT
.LVL428:
.LEHE263:
.LEHB264:
	.loc 1 27 35 view .LVU503
	call	*system__soft_links__abort_defer(%rip)
.LVL429:
	.loc 1 27 35 is_stmt 0 discriminator 10 view .LVU504
	movdqu	0(%rbp), %xmm3
	movaps	%xmm3, 736(%rsp)
	movdqu	16(%rbp), %xmm4
	movaps	%xmm4, 752(%rsp)
	movdqu	32(%rbp), %xmm5
	movaps	%xmm5, 768(%rsp)
	movq	48(%rbp), %rax
	movq	56(%rbp), %rdx
	movq	%rax, 784(%rsp)
	movq	%rdx, 792(%rsp)
	leaq	736(%rsp), %rdi
	movl	$1, %esi
	call	spatial__velocityDA@PLT
.LVL430:
.LEHE264:
.LEHB265:
	.loc 1 27 0 is_stmt 1 discriminator 13 view .LVU505
	call	system__standard_library__abort_undefer_direct@PLT
.LVL431:
.LEHE265:
.LEHB266:
	.loc 1 27 35 view .LVU506
	call	*system__soft_links__abort_defer(%rip)
.LVL432:
	.loc 1 27 35 is_stmt 0 discriminator 17 view .LVU507
	movdqu	0(%r13), %xmm6
	movaps	%xmm6, 800(%rsp)
	movq	16(%r13), %rax
	movq	24(%r13), %rdx
	movq	%rax, 816(%rsp)
	movq	%rdx, 824(%rsp)
	leaq	800(%rsp), %rdi
	movl	$1, %esi
	call	ada__numerics__big_numbers__big_reals__big_realDA@PLT
.LVL433:
.LEHE266:
.LEHB267:
	.loc 1 27 0 is_stmt 1 discriminator 20 view .LVU508
	call	system__standard_library__abort_undefer_direct@PLT
.LVL434:
	.loc 1 27 7 view .LVU509
	leaq	672(%rsp), %r12
.LVL435:
	.loc 1 27 7 is_stmt 0 view .LVU510
	movq	%rsp, %rdx
	leaq	main__univ__universe_itemFD.59(%rip), %rsi
	movq	%r12, %rdi
	call	system__finalization_primitives__attach_object_to_node@PLT
.LVL436:
.LEHE267:
	.loc 1 29 24 is_stmt 1 view .LVU511
	movl	1600(%rbx), %eax
	cmpl	$10, %eax
	ja	.L644
	.loc 1 29 36 discriminator 2 view .LVU512
	leal	1(%rax), %ebp
.LVL437:
	.loc 1 29 36 is_stmt 0 discriminator 2 view .LVU513
	cmpl	$10, %ebp
	jg	.L645
	.loc 1 29 20 is_stmt 1 discriminator 5 view .LVU514
	movl	%ebp, 1600(%rbx)
	.loc 1 30 8 view .LVU515
	cmpl	$9, %eax
	ja	.L646
.LEHB268:
	.loc 1 30 30 discriminator 2 view .LVU516
	call	*system__soft_links__abort_defer(%rip)
.LVL438:
.LEHE268:
	jmp	.L647
.LVL439:
.L644:
	.loc 1 29 24 discriminator 1 view .LVU517
	movl	$29, %esi
	leaq	.LC69(%rip), %rdi
.LEHB269:
	call	__gnat_rcheck_CE_Invalid_Data@PLT
.LVL440:
.LEHE269:
.L634:
	.loc 1 31 0 discriminator 5 view .LVU518
	movq	%rax, %rbx
.L627:
	movq	%rsp, %r10
.LEHB270:
	call	main__univ__add_item___finalizer.60
.LVL441:
	movq	%rbx, %rdi
	call	_Unwind_Resume@PLT
.LVL442:
.LEHE270:
.L645:
	.loc 1 29 36 discriminator 4 view .LVU519
	movl	$29, %esi
	leaq	.LC69(%rip), %rdi
.LEHB271:
	call	__gnat_rcheck_CE_Range_Check@PLT
.LVL443:
.L646:
	.loc 1 30 8 discriminator 1 view .LVU520
	movl	$30, %esi
	leaq	.LC69(%rip), %rdi
	call	__gnat_rcheck_CE_Index_Check@PLT
.LVL444:
.LEHE271:
.L647:
.LBB598:
	.loc 1 30 30 discriminator 6 view .LVU521
	movslq	%ebp, %rbp
	leaq	-5(%rbp,%rbp,4), %rax
	salq	$5, %rax
	addq	%rbx, %rax
	cmpq	%rax, %r12
	je	.L625
	.loc 1 30 8 discriminator 7 view .LVU522
	movq	%rax, %r12
	movl	$1, %esi
	movq	%rax, %rdi
.LEHB272:
	call	main__univ__universe_itemDF.15
.LVL445:
	.loc 1 30 30 discriminator 10 view .LVU523
	movdqa	672(%rsp), %xmm7
	movups	%xmm7, (%r12)
	movdqa	688(%rsp), %xmm7
	movups	%xmm7, 16(%r12)
	movdqa	704(%rsp), %xmm0
	movups	%xmm0, 32(%r12)
	movdqa	720(%rsp), %xmm1
	movups	%xmm1, 48(%r12)
	movdqa	736(%rsp), %xmm2
	movups	%xmm2, 64(%r12)
	movdqa	752(%rsp), %xmm3
	movups	%xmm3, 80(%r12)
	movdqa	768(%rsp), %xmm4
	movups	%xmm4, 96(%r12)
	movdqa	784(%rsp), %xmm5
	movups	%xmm5, 112(%r12)
	movdqa	800(%rsp), %xmm6
	movups	%xmm6, 128(%r12)
	movdqa	816(%rsp), %xmm7
	movups	%xmm7, 144(%r12)
	.loc 1 30 8 discriminator 11 view .LVU524
	movl	$1, %esi
	movq	%r12, %rdi
	call	main__univ__universe_itemDA.55
.LVL446:
.LEHE272:
.L625:
.LEHB273:
.LBE598:
	.loc 1 30 0 discriminator 13 view .LVU525
	call	system__standard_library__abort_undefer_direct@PLT
.LVL447:
	jmp	.L648
.LVL448:
.L635:
	.loc 1 27 0 discriminator 5 view .LVU526
	movq	%rax, %rbx
.LVL449:
	.loc 1 27 0 is_stmt 0 discriminator 5 view .LVU527
	call	system__standard_library__abort_undefer_direct@PLT
.LVL450:
	jmp	.L627
.LVL451:
.L636:
	.loc 1 27 0 discriminator 12 view .LVU528
	movq	%rax, %rbx
.LVL452:
	.loc 1 27 0 discriminator 12 view .LVU529
	call	system__standard_library__abort_undefer_direct@PLT
.LVL453:
	jmp	.L627
.LVL454:
.L637:
	.loc 1 27 0 discriminator 19 view .LVU530
	movq	%rax, %rbx
.LVL455:
	.loc 1 27 0 discriminator 19 view .LVU531
	call	system__standard_library__abort_undefer_direct@PLT
.LVL456:
	jmp	.L627
.LVL457:
.L639:
	.loc 1 27 0 discriminator 19 view .LVU532
	movq	%rax, %rbp
	cmpq	$1, %rdx
	je	.L631
	movq	%rax, %rbx
.LVL458:
.L632:
	.loc 1 30 0 is_stmt 1 discriminator 5 view .LVU533
	call	system__standard_library__abort_undefer_direct@PLT
.LVL459:
.LEHE273:
	jmp	.L627
.LVL460:
.L631:
	.loc 1 30 0 is_stmt 0 discriminator 5 view .LVU534
	movq	%rax, %rdi
	call	__gnat_begin_handler_v1@PLT
.LVL461:
	.loc 1 30 0 discriminator 5 view .LVU535
	movq	%rax, %r12
.LVL462:
	.loc 1 30 0 discriminator 5 view .LVU536
	leaq	32(%rsp), %rdi
	movq	%rbp, %rsi
.LEHB274:
	call	__gnat_set_exception_parameter@PLT
.LVL463:
.LBB599:
	.loc 1 30 30 is_stmt 1 view .LVU537
	leaq	32(%rsp), %rdi
	call	__gnat_raise_from_controlled_operation@PLT
.LVL464:
.LEHE274:
.L640:
	.loc 1 30 30 is_stmt 0 view .LVU538
	movq	%rax, %rbx
.LVL465:
	.loc 1 30 30 view .LVU539
	movq	%rax, %rdx
	movq	%r12, %rsi
	movq	%rbp, %rdi
.LEHB275:
	call	__gnat_end_handler_v1@PLT
.LVL466:
.LEHE275:
	.loc 1 30 30 view .LVU540
	jmp	.L632
.LVL467:
.L638:
	.loc 1 30 30 view .LVU541
.LBE599:
	.loc 1 30 0 is_stmt 1 discriminator 5 view .LVU542
	movq	%rax, %rbx
	jmp	.L632
.LVL468:
.L648:
	.loc 1 31 0 view .LVU543
	movq	%rsp, %r10
.LEHB276:
	call	main__univ__add_item___finalizer.60
.LVL469:
	.loc 1 31 8 view .LVU544
	addq	$840, %rsp
	.cfi_def_cfa_offset 40
.LEHE276:
	popq	%rbx
	.cfi_def_cfa_offset 32
.LVL470:
	.loc 1 31 8 is_stmt 0 view .LVU545
	popq	%rbp
	.cfi_def_cfa_offset 24
	popq	%r12
	.cfi_def_cfa_offset 16
	popq	%r13
	.cfi_def_cfa_offset 8
.LVL471:
	.loc 1 31 8 view .LVU546
	ret
	.cfi_endproc
.LFE6:
	.section	.gcc_except_table.main__univ__add_item.58,"a",@progbits
	.align 4
.LLSDA6:
	.byte	0xff
	.byte	0x9b
	.uleb128 .LLSDATT6-.LLSDATTD6
.LLSDATTD6:
	.byte	0x1
	.uleb128 .LLSDACSE6-.LLSDACSB6
.LLSDACSB6:
	.uleb128 .LEHB261-.LFB6
	.uleb128 .LEHE261-.LEHB261
	.uleb128 0
	.uleb128 0
	.uleb128 .LEHB262-.LFB6
	.uleb128 .LEHE262-.LEHB262
	.uleb128 .L635-.LFB6
	.uleb128 0
	.uleb128 .LEHB263-.LFB6
	.uleb128 .LEHE263-.LEHB263
	.uleb128 .L634-.LFB6
	.uleb128 0
	.uleb128 .LEHB264-.LFB6
	.uleb128 .LEHE264-.LEHB264
	.uleb128 .L636-.LFB6
	.uleb128 0
	.uleb128 .LEHB265-.LFB6
	.uleb128 .LEHE265-.LEHB265
	.uleb128 .L634-.LFB6
	.uleb128 0
	.uleb128 .LEHB266-.LFB6
	.uleb128 .LEHE266-.LEHB266
	.uleb128 .L637-.LFB6
	.uleb128 0
	.uleb128 .LEHB267-.LFB6
	.uleb128 .LEHE267-.LEHB267
	.uleb128 .L634-.LFB6
	.uleb128 0
	.uleb128 .LEHB268-.LFB6
	.uleb128 .LEHE268-.LEHB268
	.uleb128 .L638-.LFB6
	.uleb128 0
	.uleb128 .LEHB269-.LFB6
	.uleb128 .LEHE269-.LEHB269
	.uleb128 .L634-.LFB6
	.uleb128 0
	.uleb128 .LEHB270-.LFB6
	.uleb128 .LEHE270-.LEHB270
	.uleb128 0
	.uleb128 0
	.uleb128 .LEHB271-.LFB6
	.uleb128 .LEHE271-.LEHB271
	.uleb128 .L634-.LFB6
	.uleb128 0
	.uleb128 .LEHB272-.LFB6
	.uleb128 .LEHE272-.LEHB272
	.uleb128 .L639-.LFB6
	.uleb128 0x3
	.uleb128 .LEHB273-.LFB6
	.uleb128 .LEHE273-.LEHB273
	.uleb128 .L634-.LFB6
	.uleb128 0
	.uleb128 .LEHB274-.LFB6
	.uleb128 .LEHE274-.LEHB274
	.uleb128 .L640-.LFB6
	.uleb128 0
	.uleb128 .LEHB275-.LFB6
	.uleb128 .LEHE275-.LEHB275
	.uleb128 .L638-.LFB6
	.uleb128 0
	.uleb128 .LEHB276-.LFB6
	.uleb128 .LEHE276-.LEHB276
	.uleb128 0
	.uleb128 0
.LLSDACSE6:
	.byte	0
	.byte	0
	.byte	0x1
	.byte	0x7d
	.align 4
	.long	DW.ref.__gnat_others_value-.
.LLSDATT6:
	.section	.text.main__univ__add_item.58
	.size	main__univ__add_item.58, .-main__univ__add_item.58
	.section	.rodata.main__univ__init.52.str1.1,"aMS",@progbits,1
.LC79:
	.string	"0.0"
	.section	.rodata
	.align 8
.LC6:
	.long	1
	.long	3
	.section	.text.main__univ__init.52,"ax",@progbits
	.align 2
	.type	main__univ__init.52, @function
main__univ__init.52:
.LVL472:
.LFB2:
	.loc 1 9 4 is_stmt 1 view -0
	.cfi_startproc
	.cfi_personality 0x9b,DW.ref.__gnat_personality_v0
	.cfi_lsda 0x1b,.LLSDA2
	.loc 1 9 4 is_stmt 0 view .LVU548
	pushq	%rbp
	.cfi_def_cfa_offset 16
	.cfi_offset 6, -16
	movq	%rsp, %rbp
	.cfi_def_cfa_register 6
	pushq	%r14
	pushq	%r12
	pushq	%rbx
.LEHB277:
	subq	$2360, %rsp
.LEHE277:
	.cfi_offset 14, -24
	.cfi_offset 12, -32
	.cfi_offset 3, -40
	movq	%rdi, %r12
	.loc 1 9 4 is_stmt 1 discriminator 1 view .LVU549
	leaq	16(%rbp), %rax
	movq	%rax, -2216(%rbp)
.LVL473:
	.loc 1 9 4 is_stmt 0 discriminator 1 view .LVU550
	movb	$1, -2256(%rbp)
	movb	$0, -2255(%rbp)
	movb	$0, -2254(%rbp)
	movq	$0, -2248(%rbp)
.LVL474:
	.loc 1 11 36 is_stmt 1 view .LVU551
	movq	$0, -320(%rbp)
	movq	$0, -312(%rbp)
	movq	$0, -304(%rbp)
.LVL475:
	.loc 1 11 36 is_stmt 0 discriminator 2 view .LVU552
	leaq	-2256(%rbp), %rsi
	leaq	-320(%rbp), %rdi
.LVL476:
.LEHB278:
	.loc 1 11 36 discriminator 2 view .LVU553
	call	system__finalization_primitives__chain_node_to_master@PLT
.LVL477:
.LBB600:
	.loc 1 11 36 discriminator 4 view .LVU554
	leaq	.LC6(%rip), %rbx
	leaq	-2384(%rbp), %rdi
	leaq	.LC79(%rip), %rsi
	movq	%rbx, %rdx
	call	ada__numerics__big_numbers__big_reals__from_string@PLT
.LVL478:
.LBE600:
	.loc 1 11 36 discriminator 6 view .LVU555
	leaq	-320(%rbp), %rdx
	leaq	-2384(%rbp), %rdi
	movq	ada__numerics__big_numbers__big_reals__big_realFD@GOTPCREL(%rip), %rsi
	call	system__finalization_primitives__attach_object_to_node@PLT
.LVL479:
	.loc 1 11 46 is_stmt 1 discriminator 8 view .LVU556
	movq	$0, -288(%rbp)
	movq	$0, -280(%rbp)
	movq	$0, -272(%rbp)
.LVL480:
	.loc 1 11 46 is_stmt 0 discriminator 10 view .LVU557
	leaq	-2256(%rbp), %rsi
	leaq	-288(%rbp), %rdi
	call	system__finalization_primitives__chain_node_to_master@PLT
.LVL481:
.LBB601:
	.loc 1 11 46 discriminator 12 view .LVU558
	leaq	-2352(%rbp), %rdi
	leaq	.LC79(%rip), %rsi
	movq	%rbx, %rdx
	call	ada__numerics__big_numbers__big_reals__from_string@PLT
.LVL482:
.LBE601:
	.loc 1 11 46 discriminator 14 view .LVU559
	leaq	-288(%rbp), %rdx
	leaq	-2352(%rbp), %rdi
	movq	ada__numerics__big_numbers__big_reals__big_realFD@GOTPCREL(%rip), %rsi
	call	system__finalization_primitives__attach_object_to_node@PLT
.LVL483:
	.loc 1 11 30 is_stmt 1 discriminator 16 view .LVU560
	movq	$0, -256(%rbp)
	movq	$0, -248(%rbp)
	movq	$0, -240(%rbp)
.LVL484:
	.loc 1 11 30 is_stmt 0 discriminator 18 view .LVU561
	leaq	-2256(%rbp), %rsi
	leaq	-256(%rbp), %rdi
	call	system__finalization_primitives__chain_node_to_master@PLT
.LVL485:
.LEHE278:
.LEHB279:
	.loc 1 11 30 discriminator 20 view .LVU562
	call	*system__soft_links__abort_defer(%rip)
.LVL486:
	.loc 1 11 30 discriminator 23 view .LVU563
	movdqa	-2384(%rbp), %xmm2
	movaps	%xmm2, -2208(%rbp)
	movdqa	-2368(%rbp), %xmm3
	movaps	%xmm3, -2192(%rbp)
	.loc 1 11 30 discriminator 25 view .LVU564
	leaq	-2208(%rbp), %rdi
	movl	$1, %esi
	call	ada__numerics__big_numbers__big_reals__big_realDA@PLT
.LVL487:
.LEHE279:
.LEHB280:
	.loc 1 11 0 is_stmt 1 discriminator 28 view .LVU565
	call	system__standard_library__abort_undefer_direct@PLT
.LVL488:
.LEHE280:
.LEHB281:
	.loc 1 11 30 view .LVU566
	call	*system__soft_links__abort_defer(%rip)
.LVL489:
	.loc 1 11 30 is_stmt 0 discriminator 32 view .LVU567
	movdqa	-2352(%rbp), %xmm4
	movaps	%xmm4, -2176(%rbp)
	movdqa	-2336(%rbp), %xmm5
	movaps	%xmm5, -2160(%rbp)
	.loc 1 11 30 discriminator 34 view .LVU568
	leaq	-2176(%rbp), %rdi
	movl	$1, %esi
	call	ada__numerics__big_numbers__big_reals__big_realDA@PLT
.LVL490:
.LEHE281:
.LEHB282:
	.loc 1 11 0 is_stmt 1 discriminator 37 view .LVU569
	call	system__standard_library__abort_undefer_direct@PLT
.LVL491:
	.loc 1 11 30 view .LVU570
	leaq	-256(%rbp), %rdx
	leaq	-2208(%rbp), %rdi
	movq	vector__vectorFD@GOTPCREL(%rip), %rsi
	call	system__finalization_primitives__attach_object_to_node@PLT
.LVL492:
	.loc 1 10 7 view .LVU571
	movq	$0, -224(%rbp)
	movq	$0, -216(%rbp)
	movq	$0, -208(%rbp)
.LVL493:
.LBB602:
.LBB603:
	.loc 6 37 7 view .LVU572
	movdqa	-2208(%rbp), %xmm6
	movaps	%xmm6, -384(%rbp)
	movdqa	-2192(%rbp), %xmm7
	movaps	%xmm7, -368(%rbp)
	movdqa	-2176(%rbp), %xmm2
	movaps	%xmm2, -352(%rbp)
	movdqa	-2160(%rbp), %xmm3
	movaps	%xmm3, -336(%rbp)
	leaq	-384(%rbp), %rdi
	movl	$1, %esi
	call	vector__vectorDA@PLT
.LVL494:
	.loc 6 37 7 is_stmt 0 view .LVU573
.LBE603:
.LBE602:
	.loc 1 10 7 is_stmt 1 view .LVU574
	leaq	-2256(%rbp), %rcx
	leaq	-224(%rbp), %rdx
	leaq	-384(%rbp), %rdi
	movq	spatial__positionFD@GOTPCREL(%rip), %rsi
	call	system__finalization_primitives__attach_object_to_master@PLT
.LVL495:
	.loc 1 11 30 view .LVU575
	leaq	-256(%rbp), %rdi
	movq	vector__vectorFD@GOTPCREL(%rip), %rsi
	call	system__finalization_primitives__finalize_object@PLT
.LVL496:
	.loc 1 11 46 discriminator 42 view .LVU576
	leaq	-288(%rbp), %rdi
	movq	ada__numerics__big_numbers__big_reals__big_realFD@GOTPCREL(%rip), %rsi
	call	system__finalization_primitives__finalize_object@PLT
.LVL497:
	.loc 1 11 36 discriminator 44 view .LVU577
	leaq	-320(%rbp), %rdi
	movq	ada__numerics__big_numbers__big_reals__big_realFD@GOTPCREL(%rip), %rsi
	call	system__finalization_primitives__finalize_object@PLT
.LVL498:
	.loc 1 13 36 view .LVU578
	movq	$0, -192(%rbp)
	movq	$0, -184(%rbp)
	movq	$0, -176(%rbp)
.LVL499:
	.loc 1 13 36 is_stmt 0 discriminator 2 view .LVU579
	leaq	-2256(%rbp), %rsi
	leaq	-192(%rbp), %rdi
	call	system__finalization_primitives__chain_node_to_master@PLT
.LVL500:
.LBB604:
	.loc 1 13 36 discriminator 4 view .LVU580
	leaq	-2320(%rbp), %rdi
	leaq	.LC79(%rip), %rsi
	movq	%rbx, %rdx
	call	ada__numerics__big_numbers__big_reals__from_string@PLT
.LVL501:
.LBE604:
	.loc 1 13 36 discriminator 6 view .LVU581
	leaq	-192(%rbp), %rdx
	leaq	-2320(%rbp), %rdi
	movq	ada__numerics__big_numbers__big_reals__big_realFD@GOTPCREL(%rip), %rsi
	call	system__finalization_primitives__attach_object_to_node@PLT
.LVL502:
	.loc 1 13 46 is_stmt 1 discriminator 8 view .LVU582
	movq	$0, -160(%rbp)
	movq	$0, -152(%rbp)
	movq	$0, -144(%rbp)
.LVL503:
	.loc 1 13 46 is_stmt 0 discriminator 10 view .LVU583
	leaq	-2256(%rbp), %rsi
	leaq	-160(%rbp), %rdi
	call	system__finalization_primitives__chain_node_to_master@PLT
.LVL504:
.LBB605:
	.loc 1 13 46 discriminator 12 view .LVU584
	leaq	-2288(%rbp), %rdi
	leaq	.LC79(%rip), %rsi
	movq	%rbx, %rdx
	call	ada__numerics__big_numbers__big_reals__from_string@PLT
.LVL505:
.LBE605:
	.loc 1 13 46 discriminator 14 view .LVU585
	leaq	-160(%rbp), %rdx
	leaq	-2288(%rbp), %rdi
	movq	ada__numerics__big_numbers__big_reals__big_realFD@GOTPCREL(%rip), %rsi
	call	system__finalization_primitives__attach_object_to_node@PLT
.LVL506:
	.loc 1 13 30 is_stmt 1 discriminator 16 view .LVU586
	movq	$0, -128(%rbp)
	movq	$0, -120(%rbp)
	movq	$0, -112(%rbp)
.LVL507:
	.loc 1 13 30 is_stmt 0 discriminator 18 view .LVU587
	leaq	-2256(%rbp), %rsi
	leaq	-128(%rbp), %rdi
	call	system__finalization_primitives__chain_node_to_master@PLT
.LVL508:
.LEHE282:
.LEHB283:
	.loc 1 13 30 discriminator 20 view .LVU588
	call	*system__soft_links__abort_defer(%rip)
.LVL509:
	.loc 1 13 30 discriminator 23 view .LVU589
	movdqa	-2320(%rbp), %xmm4
	movaps	%xmm4, -2144(%rbp)
	movdqa	-2304(%rbp), %xmm5
	movaps	%xmm5, -2128(%rbp)
	.loc 1 13 30 discriminator 25 view .LVU590
	leaq	-2144(%rbp), %rdi
	movl	$1, %esi
	call	ada__numerics__big_numbers__big_reals__big_realDA@PLT
.LVL510:
.LEHE283:
.LEHB284:
	.loc 1 13 0 is_stmt 1 discriminator 28 view .LVU591
	call	system__standard_library__abort_undefer_direct@PLT
.LVL511:
.LEHE284:
.LEHB285:
	.loc 1 13 30 view .LVU592
	call	*system__soft_links__abort_defer(%rip)
.LVL512:
	.loc 1 13 30 is_stmt 0 discriminator 32 view .LVU593
	movdqa	-2288(%rbp), %xmm6
	movaps	%xmm6, -2112(%rbp)
	movdqa	-2272(%rbp), %xmm7
	movaps	%xmm7, -2096(%rbp)
	.loc 1 13 30 discriminator 34 view .LVU594
	leaq	-2112(%rbp), %rdi
	movl	$1, %esi
	call	ada__numerics__big_numbers__big_reals__big_realDA@PLT
.LVL513:
.LEHE285:
.LEHB286:
	.loc 1 13 0 is_stmt 1 discriminator 37 view .LVU595
	call	system__standard_library__abort_undefer_direct@PLT
.LVL514:
	.loc 1 13 30 view .LVU596
	leaq	-128(%rbp), %rdx
	leaq	-2144(%rbp), %rdi
	movq	vector__vectorFD@GOTPCREL(%rip), %rsi
	call	system__finalization_primitives__attach_object_to_node@PLT
.LVL515:
	.loc 1 12 7 view .LVU597
	movq	$0, -96(%rbp)
	movq	$0, -88(%rbp)
	movq	$0, -80(%rbp)
.LVL516:
.LBB606:
.LBB607:
	.loc 6 40 7 view .LVU598
	movdqa	-2144(%rbp), %xmm2
	movaps	%xmm2, -448(%rbp)
	movdqa	-2128(%rbp), %xmm3
	movaps	%xmm3, -432(%rbp)
	movdqa	-2112(%rbp), %xmm4
	movaps	%xmm4, -416(%rbp)
	movdqa	-2096(%rbp), %xmm5
	movaps	%xmm5, -400(%rbp)
	leaq	-448(%rbp), %rdi
	movl	$1, %esi
	call	vector__vectorDA@PLT
.LVL517:
	.loc 6 40 7 is_stmt 0 view .LVU599
.LBE607:
.LBE606:
	.loc 1 12 7 is_stmt 1 view .LVU600
	leaq	-2256(%rbp), %rcx
	leaq	-96(%rbp), %rdx
	leaq	-448(%rbp), %rdi
	movq	spatial__velocityFD@GOTPCREL(%rip), %rsi
	call	system__finalization_primitives__attach_object_to_master@PLT
.LVL518:
	.loc 1 13 30 view .LVU601
	leaq	-128(%rbp), %rdi
	movq	vector__vectorFD@GOTPCREL(%rip), %rsi
	call	system__finalization_primitives__finalize_object@PLT
.LVL519:
	.loc 1 13 46 discriminator 42 view .LVU602
	leaq	-160(%rbp), %rdi
	movq	ada__numerics__big_numbers__big_reals__big_realFD@GOTPCREL(%rip), %rsi
	call	system__finalization_primitives__finalize_object@PLT
.LVL520:
	.loc 1 13 36 discriminator 44 view .LVU603
	leaq	-192(%rbp), %rdi
	movq	ada__numerics__big_numbers__big_reals__big_realFD@GOTPCREL(%rip), %rsi
	call	system__finalization_primitives__finalize_object@PLT
.LVL521:
	.loc 1 14 7 view .LVU604
	movq	$0, -64(%rbp)
	movq	$0, -56(%rbp)
	movq	$0, -48(%rbp)
.LVL522:
	.loc 1 14 30 discriminator 2 view .LVU605
	leaq	-480(%rbp), %rdi
	leaq	.LC79(%rip), %rsi
	movq	%rbx, %rdx
	call	ada__numerics__big_numbers__big_reals__from_string@PLT
.LVL523:
	.loc 1 14 7 discriminator 4 view .LVU606
	leaq	-2256(%rbp), %rcx
	leaq	-64(%rbp), %rdx
	leaq	-480(%rbp), %rdi
	movq	ada__numerics__big_numbers__big_reals__big_realFD@GOTPCREL(%rip), %rsi
	call	system__finalization_primitives__attach_object_to_master@PLT
.LVL524:
.LEHE286:
.LBB608:
	.loc 1 16 15 view .LVU607
	movq	$0, -2240(%rbp)
	movq	$0, -2232(%rbp)
	movq	$0, -2224(%rbp)
.LVL525:
.LBB609:
	.loc 1 17 9 view .LVU608
	movl	$1, %eax
	jmp	.L651
.L673:
	.loc 1 17 20 discriminator 6 view .LVU609
	movslq	%r14d, %rbx
	leaq	-5(%rbx,%rbx,4), %rax
	salq	$5, %rax
	leaq	-2080(%rbp,%rax), %rdx
	movdqa	-384(%rbp), %xmm0
.LEHB287:
	movaps	%xmm0, -2080(%rbp,%rax)
	movdqa	-368(%rbp), %xmm1
	movaps	%xmm1, 16(%rdx)
	movdqa	-352(%rbp), %xmm2
	movaps	%xmm2, 32(%rdx)
	movdqa	-336(%rbp), %xmm3
	movaps	%xmm3, 48(%rdx)
	.loc 1 17 20 is_stmt 0 discriminator 8 view .LVU610
	movq	%rdx, %rdi
	movl	$1, %esi
	call	spatial__positionDA@PLT
.LVL526:
.LEHE287:
.LEHB288:
	.loc 1 17 0 is_stmt 1 discriminator 11 view .LVU611
	call	system__standard_library__abort_undefer_direct@PLT
.LVL527:
.LEHE288:
.LEHB289:
	.loc 1 17 20 view .LVU612
	call	*system__soft_links__abort_defer(%rip)
.LVL528:
	.loc 1 17 20 is_stmt 0 discriminator 15 view .LVU613
	leaq	(%rbx,%rbx,4), %rax
	salq	$5, %rax
	leaq	-2176(%rbp,%rax), %rdx
	movdqa	-448(%rbp), %xmm4
	movaps	%xmm4, -2176(%rbp,%rax)
	movdqa	-432(%rbp), %xmm5
	movaps	%xmm5, 16(%rdx)
	movdqa	-416(%rbp), %xmm6
	movaps	%xmm6, 32(%rdx)
	movdqa	-400(%rbp), %xmm7
	movaps	%xmm7, 48(%rdx)
	.loc 1 17 20 discriminator 17 view .LVU614
	movq	%rdx, %rdi
	movl	$1, %esi
	call	spatial__velocityDA@PLT
.LVL529:
.LEHE289:
.LEHB290:
	.loc 1 17 0 is_stmt 1 discriminator 20 view .LVU615
	call	system__standard_library__abort_undefer_direct@PLT
.LVL530:
.LEHE290:
.LEHB291:
	.loc 1 17 20 view .LVU616
	call	*system__soft_links__abort_defer(%rip)
.LVL531:
	.loc 1 17 20 is_stmt 0 discriminator 24 view .LVU617
	leaq	(%rbx,%rbx,4), %rax
	salq	$5, %rax
	leaq	-2112(%rbp,%rax), %rdx
	movdqa	-480(%rbp), %xmm0
	movaps	%xmm0, -2112(%rbp,%rax)
	movdqa	-464(%rbp), %xmm1
	movaps	%xmm1, 16(%rdx)
	.loc 1 17 20 discriminator 26 view .LVU618
	movq	%rdx, %rdi
	movl	$1, %esi
	call	ada__numerics__big_numbers__big_reals__big_realDA@PLT
.LVL532:
.LEHE291:
.LEHB292:
	.loc 1 17 0 is_stmt 1 discriminator 29 view .LVU619
	call	system__standard_library__abort_undefer_direct@PLT
.LVL533:
.LEHE292:
	.loc 1 17 9 discriminator 31 view .LVU620
	addl	$1, %r14d
	movl	%r14d, %eax
.L651:
	.loc 1 17 9 is_stmt 0 discriminator 1 view .LVU621
	movl	%eax, %r14d
	cmpl	$10, %eax
	jg	.L650
.LEHB293:
	.loc 1 17 20 is_stmt 1 discriminator 2 view .LVU622
	call	*system__soft_links__abort_defer(%rip)
.LVL534:
.LEHE293:
	jmp	.L673
.L650:
.LBE609:
	.loc 1 17 9 discriminator 3 view .LVU623
	leaq	-2240(%rbp), %rdx
	leaq	-2080(%rbp), %rdi
	leaq	main__univ__init__B879b__T878b_895FD.53(%rip), %rsi
.LEHB294:
	call	system__finalization_primitives__attach_object_to_node@PLT
.LVL535:
.LBB610:
	.loc 1 16 15 discriminator 4 view .LVU624
	leaq	-2080(%rbp), %rax
	leaq	.LC8(%rip), %rdx
	movq	%r12, %rdi
	subq	$8, %rsp
	pushq	$0
	pushq	$10
	pushq	$1
	movl	$10, %r9d
	movl	$1, %r8d
	movq	%rdx, %rcx
	movq	%rax, %rdx
	leaq	.LC8(%rip), %rsi
	.cfi_escape 0x2e,0x20
	call	main__univ__TitemarrayBSA.54
.LVL536:
.LEHE294:
	addq	$32, %rsp
.LBE610:
	.loc 1 16 0 discriminator 5 view .LVU625
	leaq	-2256(%rbp), %r10
.LEHB295:
	.cfi_escape 0x2e,0
	call	main__univ__init__B879b___finalizer.56
.LVL537:
	jmp	.L674
.L662:
	.loc 1 16 0 is_stmt 0 discriminator 5 view .LVU626
.LBE608:
	.loc 1 11 0 is_stmt 1 discriminator 27 view .LVU627
	movq	%rax, %rbx
	call	system__standard_library__abort_undefer_direct@PLT
.LVL538:
	jmp	.L653
.L663:
	.loc 1 11 0 is_stmt 0 discriminator 36 view .LVU628
	movq	%rax, %rbx
	call	system__standard_library__abort_undefer_direct@PLT
.LVL539:
	jmp	.L653
.L664:
	.loc 1 13 0 is_stmt 1 discriminator 27 view .LVU629
	movq	%rax, %rbx
	call	system__standard_library__abort_undefer_direct@PLT
.LVL540:
	jmp	.L653
.L665:
	.loc 1 13 0 is_stmt 0 discriminator 36 view .LVU630
	movq	%rax, %rbx
	call	system__standard_library__abort_undefer_direct@PLT
.LVL541:
.LEHE295:
	jmp	.L653
.L667:
.LBB612:
.LBB611:
	.loc 1 17 0 is_stmt 1 discriminator 10 view .LVU631
	movq	%rax, %rbx
.LEHB296:
	call	system__standard_library__abort_undefer_direct@PLT
.LVL542:
	jmp	.L658
.L668:
	.loc 1 17 0 is_stmt 0 discriminator 19 view .LVU632
	movq	%rax, %rbx
	call	system__standard_library__abort_undefer_direct@PLT
.LVL543:
	jmp	.L658
.L669:
	.loc 1 17 0 discriminator 28 view .LVU633
	movq	%rax, %rbx
	call	system__standard_library__abort_undefer_direct@PLT
.LVL544:
.LEHE296:
	jmp	.L658
.L666:
.LBE611:
	.loc 1 16 0 is_stmt 1 discriminator 2 view .LVU634
	movq	%rax, %rbx
.L658:
	leaq	-2256(%rbp), %r10
.LEHB297:
	call	main__univ__init__B879b___finalizer.56
.LVL545:
.LEHE297:
	jmp	.L653
.L661:
.LBE612:
	.loc 1 19 0 discriminator 5 view .LVU635
	movq	%rax, %rbx
.L653:
	leaq	-2256(%rbp), %r10
.LEHB298:
	call	main__univ__init___finalizer.57
.LVL546:
	movq	%rbx, %rdi
	call	_Unwind_Resume@PLT
.LVL547:
.L674:
	.loc 1 18 20 view .LVU636
	movl	$0, 1600(%r12)
	.loc 1 19 0 view .LVU637
	leaq	-2256(%rbp), %r10
	call	main__univ__init___finalizer.57
.LVL548:
	.loc 1 19 8 view .LVU638
	leaq	-24(%rbp), %rsp
.LEHE298:
	popq	%rbx
	popq	%r12
.LVL549:
	.loc 1 19 8 is_stmt 0 view .LVU639
	popq	%r14
	popq	%rbp
	.cfi_def_cfa 7, 8
	ret
	.cfi_endproc
.LFE2:
	.section	.gcc_except_table.main__univ__init.52,"a",@progbits
.LLSDA2:
	.byte	0xff
	.byte	0xff
	.byte	0x1
	.uleb128 .LLSDACSE2-.LLSDACSB2
.LLSDACSB2:
	.uleb128 .LEHB277-.LFB2
	.uleb128 .LEHE277-.LEHB277
	.uleb128 0
	.uleb128 0
	.uleb128 .LEHB278-.LFB2
	.uleb128 .LEHE278-.LEHB278
	.uleb128 .L661-.LFB2
	.uleb128 0
	.uleb128 .LEHB279-.LFB2
	.uleb128 .LEHE279-.LEHB279
	.uleb128 .L662-.LFB2
	.uleb128 0
	.uleb128 .LEHB280-.LFB2
	.uleb128 .LEHE280-.LEHB280
	.uleb128 .L661-.LFB2
	.uleb128 0
	.uleb128 .LEHB281-.LFB2
	.uleb128 .LEHE281-.LEHB281
	.uleb128 .L663-.LFB2
	.uleb128 0
	.uleb128 .LEHB282-.LFB2
	.uleb128 .LEHE282-.LEHB282
	.uleb128 .L661-.LFB2
	.uleb128 0
	.uleb128 .LEHB283-.LFB2
	.uleb128 .LEHE283-.LEHB283
	.uleb128 .L664-.LFB2
	.uleb128 0
	.uleb128 .LEHB284-.LFB2
	.uleb128 .LEHE284-.LEHB284
	.uleb128 .L661-.LFB2
	.uleb128 0
	.uleb128 .LEHB285-.LFB2
	.uleb128 .LEHE285-.LEHB285
	.uleb128 .L665-.LFB2
	.uleb128 0
	.uleb128 .LEHB286-.LFB2
	.uleb128 .LEHE286-.LEHB286
	.uleb128 .L661-.LFB2
	.uleb128 0
	.uleb128 .LEHB287-.LFB2
	.uleb128 .LEHE287-.LEHB287
	.uleb128 .L667-.LFB2
	.uleb128 0
	.uleb128 .LEHB288-.LFB2
	.uleb128 .LEHE288-.LEHB288
	.uleb128 .L666-.LFB2
	.uleb128 0
	.uleb128 .LEHB289-.LFB2
	.uleb128 .LEHE289-.LEHB289
	.uleb128 .L668-.LFB2
	.uleb128 0
	.uleb128 .LEHB290-.LFB2
	.uleb128 .LEHE290-.LEHB290
	.uleb128 .L666-.LFB2
	.uleb128 0
	.uleb128 .LEHB291-.LFB2
	.uleb128 .LEHE291-.LEHB291
	.uleb128 .L669-.LFB2
	.uleb128 0
	.uleb128 .LEHB292-.LFB2
	.uleb128 .LEHE292-.LEHB292
	.uleb128 .L666-.LFB2
	.uleb128 0
	.uleb128 .LEHB293-.LFB2
	.uleb128 .LEHE293-.LEHB293
	.uleb128 .L667-.LFB2
	.uleb128 0
	.uleb128 .LEHB294-.LFB2
	.uleb128 .LEHE294-.LEHB294
	.uleb128 .L666-.LFB2
	.uleb128 0
	.uleb128 .LEHB295-.LFB2
	.uleb128 .LEHE295-.LEHB295
	.uleb128 .L661-.LFB2
	.uleb128 0
	.uleb128 .LEHB296-.LFB2
	.uleb128 .LEHE296-.LEHB296
	.uleb128 .L666-.LFB2
	.uleb128 0
	.uleb128 .LEHB297-.LFB2
	.uleb128 .LEHE297-.LEHB297
	.uleb128 .L661-.LFB2
	.uleb128 0
	.uleb128 .LEHB298-.LFB2
	.uleb128 .LEHE298-.LEHB298
	.uleb128 0
	.uleb128 0
.LLSDACSE2:
	.section	.text.main__univ__init.52
	.size	main__univ__init.52, .-main__univ__init.52
	.section	.rodata.main__reset_universe.51.str1.1,"aMS",@progbits,1
.LC80:
	.string	"0"
	.section	.rodata
	.align 8
.LC1:
	.long	1
	.long	1
	.section	.text.main__reset_universe.51,"ax",@progbits
	.align 2
	.type	main__reset_universe.51, @function
main__reset_universe.51:
.LFB103:
	.loc 5 165 4 is_stmt 1 view -0
	.cfi_startproc
	.cfi_personality 0x9b,DW.ref.__gnat_personality_v0
	.cfi_lsda 0x1b,.LLSDA103
	pushq	%r12
	.cfi_def_cfa_offset 16
	.cfi_offset 12, -16
	pushq	%rbp
	.cfi_def_cfa_offset 24
	.cfi_offset 6, -24
	pushq	%rbx
	.cfi_def_cfa_offset 32
	.cfi_offset 3, -32
.LEHB299:
	subq	$832, %rsp
	.cfi_def_cfa_offset 864
.LEHE299:
	movq	%r10, %rbx
	.loc 5 165 4 discriminator 1 view .LVU641
	leaq	864(%rsp), %rax
	movq	%rax, 720(%rsp)
.LVL550:
.LBB613:
	.loc 5 169 18 view .LVU642
	movb	$1, 704(%rsp)
	movb	$0, 705(%rsp)
	movb	$0, 706(%rsp)
	movq	$0, 712(%rsp)
.LVL551:
	.loc 5 169 34 discriminator 3 view .LVU643
	movq	$0, 736(%rsp)
	movq	$0, 744(%rsp)
	movq	$0, 752(%rsp)
.LVL552:
.LBB614:
	.loc 5 169 34 is_stmt 0 discriminator 6 view .LVU644
	leaq	768(%rsp), %rdi
	leaq	.LC80(%rip), %rsi
	leaq	.LC1(%rip), %rdx
.LEHB300:
	call	ada__numerics__big_numbers__big_integers__from_string@PLT
.LVL553:
.LBE614:
	.loc 5 169 34 discriminator 9 view .LVU645
	leaq	704(%rsp), %rcx
	leaq	736(%rsp), %rdx
	leaq	768(%rsp), %rdi
	movq	ada__numerics__big_numbers__big_integers__big_integerFD@GOTPCREL(%rip), %rsi
	call	system__finalization_primitives__attach_object_to_master@PLT
.LVL554:
.LEHE300:
	.loc 5 169 21 is_stmt 1 discriminator 12 view .LVU646
	movq	$0, 784(%rsp)
	movq	$0, 792(%rsp)
	movq	$0, 800(%rsp)
.LVL555:
.LBB615:
.LBB616:
	.file 7 "/home/vscode/.local/libexec/spark/lib/gcc/x86_64-pc-linux-gnu/15.1.0/adainclude/a-nbnbre.ads"
	.loc 7 60 4 discriminator 1 view .LVU647
	leaq	864(%rsp), %rax
.LVL556:
	.loc 7 60 4 is_stmt 0 discriminator 1 view .LVU648
	movq	%rax, 56(%rsp)
.LVL557:
	.loc 7 62 36 is_stmt 1 view .LVU649
	movq	$0, 32(%rsp)
	movq	$0, 40(%rsp)
	movq	$0, 48(%rsp)
.LVL558:
	.loc 7 62 50 discriminator 3 view .LVU650
	leaq	816(%rsp), %rdi
	movl	$1, %esi
.LEHB301:
	call	ada__numerics__big_numbers__big_integers__to_big_integer@PLT
.LVL559:
	.loc 7 62 50 is_stmt 0 discriminator 6 view .LVU651
	leaq	32(%rsp), %rdx
	leaq	816(%rsp), %rdi
	movq	ada__numerics__big_numbers__big_integers__big_integerFD@GOTPCREL(%rip), %rsi
	call	system__finalization_primitives__attach_object_to_node@PLT
.LVL560:
	.loc 7 62 36 is_stmt 1 discriminator 9 view .LVU652
	movq	%rsp, %rdi
	leaq	816(%rsp), %rdx
	leaq	768(%rsp), %rsi
.LVL561:
	.loc 7 62 36 is_stmt 0 discriminator 9 view .LVU653
	call	ada__numerics__big_numbers__big_reals__Odivide@PLT
.LVL562:
.LEHE301:
	.loc 7 62 0 is_stmt 1 view .LVU654
	leaq	32(%rsp), %r10
.LEHB302:
	call	ada__numerics__big_numbers__big_reals__to_big_real__B38s___finalizer.34
.LVL563:
	.loc 7 62 0 is_stmt 0 view .LVU655
.LBE616:
.LBE615:
	.loc 5 169 21 is_stmt 1 discriminator 18 view .LVU656
	leaq	704(%rsp), %rcx
	leaq	784(%rsp), %rdx
	movq	ada__numerics__big_numbers__big_reals__big_realFD@GOTPCREL(%rip), %rsi
	movq	%rsp, %rdi
	call	system__finalization_primitives__attach_object_to_master@PLT
.LVL564:
	jmp	.L693
.LVL565:
.L688:
.LBB618:
.LBB617:
	.loc 7 62 0 discriminator 11 view .LVU657
	movq	%rax, %rbx
	leaq	32(%rsp), %r10
	call	ada__numerics__big_numbers__big_reals__to_big_real__B38s___finalizer.34
.LVL566:
.LEHE302:
	jmp	.L678
.LVL567:
.L693:
.LEHB303:
	.loc 7 62 0 is_stmt 0 discriminator 11 view .LVU658
.LBE617:
.LBE618:
	.loc 5 169 18 is_stmt 1 discriminator 21 view .LVU659
	call	*system__soft_links__abort_defer(%rip)
.LVL568:
.LEHE303:
.LBB619:
	.loc 5 169 18 is_stmt 0 discriminator 24 view .LVU660
	leaq	1744(%rbx), %rbp
	cmpq	%rsp, %rbp
	je	.L679
	.loc 5 169 7 is_stmt 1 discriminator 25 view .LVU661
	movl	$1, %esi
	movq	%rbp, %rdi
.LEHB304:
	call	ada__numerics__big_numbers__big_reals__big_realDF@PLT
.LVL569:
	.loc 5 169 18 discriminator 28 view .LVU662
	movdqa	(%rsp), %xmm0
	movups	%xmm0, 1744(%rbx)
	movdqa	16(%rsp), %xmm1
	movups	%xmm1, 1760(%rbx)
	.loc 5 169 7 discriminator 29 view .LVU663
	movl	$1, %esi
	movq	%rbp, %rdi
	call	ada__numerics__big_numbers__big_reals__big_realDA@PLT
.LVL570:
.LEHE304:
.L679:
.LEHB305:
.LBE619:
	.loc 5 169 0 discriminator 31 view .LVU664
	call	system__standard_library__abort_undefer_direct@PLT
.LVL571:
	jmp	.L694
.L686:
	movq	%rax, %rbp
	cmpq	$1, %rdx
	je	.L681
	movq	%rax, %rbx
.L682:
	.loc 5 169 0 is_stmt 0 discriminator 23 view .LVU665
	call	system__standard_library__abort_undefer_direct@PLT
.LVL572:
.LEHE305:
	jmp	.L678
.L681:
.LVL573:
	.loc 5 169 0 discriminator 23 view .LVU666
	movq	%rax, %rdi
	call	__gnat_begin_handler_v1@PLT
.LVL574:
	.loc 5 169 0 discriminator 23 view .LVU667
	movq	%rax, %r12
.LVL575:
	.loc 5 169 0 discriminator 23 view .LVU668
	leaq	64(%rsp), %rdi
	movq	%rbp, %rsi
.LEHB306:
	call	__gnat_set_exception_parameter@PLT
.LVL576:
.LBB620:
	.loc 5 169 18 is_stmt 1 view .LVU669
	leaq	64(%rsp), %rdi
	call	__gnat_raise_from_controlled_operation@PLT
.LVL577:
.LEHE306:
.L687:
	.loc 5 169 18 is_stmt 0 view .LVU670
	movq	%rax, %rbx
.LVL578:
	.loc 5 169 18 view .LVU671
	movq	%rax, %rdx
	movq	%r12, %rsi
	movq	%rbp, %rdi
.LEHB307:
	call	__gnat_end_handler_v1@PLT
.LVL579:
.LEHE307:
	.loc 5 169 18 view .LVU672
	jmp	.L682
.LVL580:
.L685:
	.loc 5 169 18 view .LVU673
.LBE620:
	.loc 5 169 0 is_stmt 1 discriminator 23 view .LVU674
	movq	%rax, %rbx
	jmp	.L682
.L684:
	.loc 5 169 0 is_stmt 0 discriminator 38 view .LVU675
	movq	%rax, %rbx
.L678:
	leaq	704(%rsp), %r10
.LEHB308:
	call	main__reset_universe__B597b___finalizer.61
.LVL581:
	movq	%rbx, %rdi
	call	_Unwind_Resume@PLT
.LVL582:
.L694:
	.loc 5 169 0 view .LVU676
	leaq	704(%rsp), %r10
	call	main__reset_universe__B597b___finalizer.61
.LVL583:
.LBE613:
	.loc 5 170 11 is_stmt 1 view .LVU677
	leaq	136(%rbx), %rbp
	movq	%rbp, %rdi
	call	main__univ__init.52
.LVL584:
	.loc 5 171 11 view .LVU678
	leaq	72(%rbx), %rcx
	leaq	1920(%rbx), %rdx
	leaq	1784(%rbx), %rsi
	movq	%rbp, %rdi
	call	main__univ__add_item.58
.LVL585:
	.loc 5 173 11 view .LVU679
	leaq	104(%rbx), %rcx
	leaq	1984(%rbx), %rdx
	leaq	1848(%rbx), %rsi
	movq	%rbp, %rdi
	call	main__univ__add_item.58
.LVL586:
	.loc 5 175 8 view .LVU680
	addq	$832, %rsp
	.cfi_def_cfa_offset 32
.LEHE308:
	popq	%rbx
	.cfi_def_cfa_offset 24
	popq	%rbp
	.cfi_def_cfa_offset 16
	popq	%r12
	.cfi_def_cfa_offset 8
	ret
	.cfi_endproc
.LFE103:
	.section	.gcc_except_table.main__reset_universe.51,"a",@progbits
	.align 4
.LLSDA103:
	.byte	0xff
	.byte	0x9b
	.uleb128 .LLSDATT103-.LLSDATTD103
.LLSDATTD103:
	.byte	0x1
	.uleb128 .LLSDACSE103-.LLSDACSB103
.LLSDACSB103:
	.uleb128 .LEHB299-.LFB103
	.uleb128 .LEHE299-.LEHB299
	.uleb128 0
	.uleb128 0
	.uleb128 .LEHB300-.LFB103
	.uleb128 .LEHE300-.LEHB300
	.uleb128 .L684-.LFB103
	.uleb128 0
	.uleb128 .LEHB301-.LFB103
	.uleb128 .LEHE301-.LEHB301
	.uleb128 .L688-.LFB103
	.uleb128 0
	.uleb128 .LEHB302-.LFB103
	.uleb128 .LEHE302-.LEHB302
	.uleb128 .L684-.LFB103
	.uleb128 0
	.uleb128 .LEHB303-.LFB103
	.uleb128 .LEHE303-.LEHB303
	.uleb128 .L685-.LFB103
	.uleb128 0
	.uleb128 .LEHB304-.LFB103
	.uleb128 .LEHE304-.LEHB304
	.uleb128 .L686-.LFB103
	.uleb128 0x3
	.uleb128 .LEHB305-.LFB103
	.uleb128 .LEHE305-.LEHB305
	.uleb128 .L684-.LFB103
	.uleb128 0
	.uleb128 .LEHB306-.LFB103
	.uleb128 .LEHE306-.LEHB306
	.uleb128 .L687-.LFB103
	.uleb128 0
	.uleb128 .LEHB307-.LFB103
	.uleb128 .LEHE307-.LEHB307
	.uleb128 .L685-.LFB103
	.uleb128 0
	.uleb128 .LEHB308-.LFB103
	.uleb128 .LEHE308-.LEHB308
	.uleb128 0
	.uleb128 0
.LLSDACSE103:
	.byte	0
	.byte	0
	.byte	0x1
	.byte	0x7d
	.align 4
	.long	DW.ref.__gnat_others_value-.
.LLSDATT103:
	.section	.text.main__reset_universe.51
	.size	main__reset_universe.51, .-main__reset_universe.51
	.section	.text.main__disp__to_float___finalizer.65,"ax",@progbits
	.align 2
	.type	main__disp__to_float___finalizer.65, @function
main__disp__to_float___finalizer.65:
.LFB48:
	.cfi_startproc
	subq	$8, %rsp
	.cfi_def_cfa_offset 16
	movq	%r10, %rdi
	call	system__secondary_stack__ss_release@PLT
	addq	$8, %rsp
	.cfi_def_cfa_offset 8
	ret
	.cfi_endproc
.LFE48:
	.size	main__disp__to_float___finalizer.65, .-main__disp__to_float___finalizer.65
	.section	.text.main__disp__to_float.64,"ax",@progbits
	.align 2
	.type	main__disp__to_float.64, @function
main__disp__to_float.64:
.LVL587:
.LFB47:
	.file 8 "/workspaces/HISE_Assignment_3/src/display.adb"
	.loc 8 29 4 view -0
	.cfi_startproc
	.cfi_personality 0x9b,DW.ref.__gnat_personality_v0
	.cfi_lsda 0x1b,.LLSDA47
	.loc 8 29 4 is_stmt 0 view .LVU682
	pushq	%rbx
	.cfi_def_cfa_offset 16
	.cfi_offset 3, -16
.LEHB309:
	subq	$48, %rsp
	.cfi_def_cfa_offset 64
.LEHE309:
	movq	%rdi, %rbx
	.loc 8 29 4 is_stmt 1 discriminator 1 view .LVU683
	leaq	64(%rsp), %rax
	movq	%rax, 40(%rsp)
	leaq	16(%rsp), %rdi
.LVL588:
.LEHB310:
	.loc 8 29 4 is_stmt 0 discriminator 1 view .LVU684
	call	system__secondary_stack__ss_mark@PLT
.LVL589:
	.loc 8 30 30 is_stmt 1 view .LVU685
	movl	$0, %ecx
	movl	$3, %edx
	movl	$2, %esi
	movq	%rbx, %rdi
	call	ada__numerics__big_numbers__big_reals__to_string@PLT
.LVL590:
	movq	%rax, %rdi
	movq	%rdx, %rsi
.LVL591:
	.loc 8 30 30 is_stmt 0 discriminator 2 view .LVU686
	movl	4(%rdx), %eax
.LVL592:
	.loc 8 30 30 discriminator 14 view .LVU687
	testl	%eax, %eax
	movl	$0, %edx
.LVL593:
	.loc 8 30 30 discriminator 14 view .LVU688
	cmovg	%edx, %eax
.LVL594:
	.loc 8 30 30 discriminator 14 view .LVU689
	cmpl	%eax, (%rsi)
	jle	.L704
.LVL595:
	.loc 8 32 19 is_stmt 1 view .LVU690
	call	system__val_flt__impl__value_real@PLT
.LVL596:
	.loc 8 32 19 is_stmt 0 view .LVU691
	jmp	.L705
.LVL597:
.L704:
	.loc 8 30 30 is_stmt 1 discriminator 15 view .LVU692
	movl	$30, %esi
.LVL598:
	.loc 8 30 30 is_stmt 0 discriminator 15 view .LVU693
	leaq	.LC71(%rip), %rdi
	call	__gnat_rcheck_CE_Range_Check@PLT
.LVL599:
.LEHE310:
.L700:
	.loc 8 33 0 is_stmt 1 discriminator 4 view .LVU694
	movq	%rax, %rbx
.LVL600:
	.loc 8 33 0 is_stmt 0 discriminator 4 view .LVU695
	leaq	16(%rsp), %r10
.LEHB311:
	call	main__disp__to_float___finalizer.65
.LVL601:
	movq	%rbx, %rdi
	call	_Unwind_Resume@PLT
.LVL602:
.L705:
	.loc 8 32 19 is_stmt 1 view .LVU696
	movss	%xmm0, 12(%rsp)
	.loc 8 33 0 view .LVU697
	leaq	16(%rsp), %r10
	call	main__disp__to_float___finalizer.65
.LVL603:
	.loc 8 33 8 view .LVU698
	movss	12(%rsp), %xmm0
	addq	$48, %rsp
	.cfi_def_cfa_offset 16
.LEHE311:
	popq	%rbx
	.cfi_def_cfa_offset 8
.LVL604:
	.loc 8 33 8 is_stmt 0 view .LVU699
	ret
	.cfi_endproc
.LFE47:
	.section	.gcc_except_table.main__disp__to_float.64,"a",@progbits
.LLSDA47:
	.byte	0xff
	.byte	0xff
	.byte	0x1
	.uleb128 .LLSDACSE47-.LLSDACSB47
.LLSDACSB47:
	.uleb128 .LEHB309-.LFB47
	.uleb128 .LEHE309-.LEHB309
	.uleb128 0
	.uleb128 0
	.uleb128 .LEHB310-.LFB47
	.uleb128 .LEHE310-.LEHB310
	.uleb128 .L700-.LFB47
	.uleb128 0
	.uleb128 .LEHB311-.LFB47
	.uleb128 .LEHE311-.LEHB311
	.uleb128 0
	.uleb128 0
.LLSDACSE47:
	.section	.text.main__disp__to_float.64
	.size	main__disp__to_float.64, .-main__disp__to_float.64
	.section	.text.main__disp__capture.62,"ax",@progbits
	.align 2
	.type	main__disp__capture.62, @function
main__disp__capture.62:
.LVL605:
.LFB49:
	.loc 8 35 4 is_stmt 1 view -0
	.cfi_startproc
	.cfi_personality 0x9b,DW.ref.__gnat_personality_v0
	.cfi_lsda 0x1b,.LLSDA49
	.loc 8 35 4 is_stmt 0 view .LVU701
	pushq	%r15
	.cfi_def_cfa_offset 16
	.cfi_offset 15, -16
	pushq	%r14
	.cfi_def_cfa_offset 24
	.cfi_offset 14, -24
	pushq	%r13
	.cfi_def_cfa_offset 32
	.cfi_offset 13, -32
	pushq	%r12
	.cfi_def_cfa_offset 40
	.cfi_offset 12, -40
	pushq	%rbp
	.cfi_def_cfa_offset 48
	.cfi_offset 6, -48
	pushq	%rbx
	.cfi_def_cfa_offset 56
	.cfi_offset 3, -56
.LEHB312:
	subq	$1432, %rsp
	.cfi_def_cfa_offset 1488
.LEHE312:
	movq	%rdi, %r13
	movq	%r10, %r15
	.loc 8 35 4 is_stmt 1 discriminator 1 view .LVU702
	leaq	1488(%rsp), %rax
	movq	%rax, 216(%rsp)
.LVL606:
	.loc 8 35 4 is_stmt 0 discriminator 1 view .LVU703
	movb	$1, 144(%rsp)
	movb	$0, 145(%rsp)
	movb	$0, 146(%rsp)
	movq	$0, 152(%rsp)
.LVL607:
	.loc 8 36 7 is_stmt 1 view .LVU704
	movq	$0, 1200(%rsp)
	movq	$0, 1208(%rsp)
	movq	$0, 1216(%rsp)
.LVL608:
.LEHB313:
	.loc 8 36 7 is_stmt 0 discriminator 2 view .LVU705
	call	*system__soft_links__abort_defer(%rip)
.LVL609:
	.loc 8 36 7 discriminator 5 view .LVU706
	leaq	1136(%rsp), %rdi
	call	vector__vectorIP@PLT
.LVL610:
.LEHE313:
.LBB621:
	.loc 8 36 7 discriminator 8 view .LVU707
	leaq	1136(%rsp), %rdi
.LEHB314:
	call	spatial__positionDI@PLT
.LVL611:
	.loc 8 36 7 discriminator 11 view .LVU708
	leaq	144(%rsp), %rcx
	leaq	1200(%rsp), %rdx
	leaq	1136(%rsp), %rdi
	movq	spatial__positionFD@GOTPCREL(%rip), %rsi
	call	system__finalization_primitives__attach_object_to_master@PLT
.LVL612:
.LEHE314:
.LEHB315:
.LBE621:
	.loc 8 36 0 is_stmt 1 discriminator 14 view .LVU709
	call	system__standard_library__abort_undefer_direct@PLT
.LVL613:
.LEHE315:
	.loc 8 37 7 view .LVU710
	movq	$0, 1232(%rsp)
	movq	$0, 1240(%rsp)
	movq	$0, 1248(%rsp)
.LVL614:
.LEHB316:
	.loc 8 37 7 is_stmt 0 discriminator 2 view .LVU711
	call	*system__soft_links__abort_defer(%rip)
.LVL615:
	.loc 8 37 7 discriminator 5 view .LVU712
	leaq	1072(%rsp), %rdi
	call	vector__vectorIP@PLT
.LVL616:
.LEHE316:
.LBB622:
	.loc 8 37 7 discriminator 8 view .LVU713
	leaq	1072(%rsp), %rdi
.LEHB317:
	call	vector__vectorDI@PLT
.LVL617:
	.loc 8 37 7 discriminator 11 view .LVU714
	leaq	144(%rsp), %rcx
	leaq	1232(%rsp), %rdx
	leaq	1072(%rsp), %rdi
	movq	vector__vectorFD@GOTPCREL(%rip), %rsi
	call	system__finalization_primitives__attach_object_to_master@PLT
.LVL618:
.LEHE317:
.LEHB318:
.LBE622:
	.loc 8 37 0 is_stmt 1 discriminator 14 view .LVU715
	call	system__standard_library__abort_undefer_direct@PLT
.LVL619:
	.loc 8 38 7 view .LVU716
	movl	$0, 1064(%rsp)
.LVL620:
	.loc 8 40 7 view .LVU717
	cmpl	$5499, 1124176(%r15)
	jg	.L707
.LVL621:
.LBB623:
.LBB624:
	.loc 4 112 9 view .LVU718
	movl	1600(%r13), %r14d
	cmpl	$10, %r14d
	ja	.L756
.LVL622:
	.loc 4 112 9 is_stmt 0 view .LVU719
.LBE624:
.LBE623:
	.loc 8 46 11 is_stmt 1 discriminator 2 view .LVU720
	testl	%r14d, %r14d
	jle	.L709
.LBB626:
	.loc 8 46 11 is_stmt 0 discriminator 3 view .LVU721
	movl	$1, %ebp
	jmp	.L714
.LVL623:
.L756:
	.loc 8 46 11 discriminator 3 view .LVU722
.LBE626:
.LBB648:
.LBB625:
	.loc 4 112 9 is_stmt 1 discriminator 1 view .LVU723
	movl	$112, %esi
	leaq	.LC66(%rip), %rdi
	call	__gnat_rcheck_CE_Invalid_Data@PLT
.LVL624:
.LEHE318:
.L738:
	.loc 4 112 9 is_stmt 0 discriminator 1 view .LVU724
.LBE625:
.LBE648:
	.loc 8 61 0 is_stmt 1 discriminator 4 view .LVU725
	movq	%rax, %rbx
.L722:
	leaq	144(%rsp), %r10
.LEHB319:
	call	main__disp__capture___finalizer.69
.LVL625:
	movq	%rbx, %rdi
	call	_Unwind_Resume@PLT
.LVL626:
.LEHE319:
.L760:
.LBB649:
.LBB627:
	.loc 8 47 14 discriminator 1 view .LVU726
	movl	$47, %esi
	leaq	.LC71(%rip), %rdi
.LEHB320:
	call	__gnat_rcheck_CE_Invalid_Data@PLT
.LVL627:
.LEHE320:
.L761:
.LBB628:
	.loc 8 48 24 discriminator 6 view .LVU727
	leaq	192(%rsp), %rdx
	leaq	80(%rsp), %rdi
	movq	spatial__positionFD@GOTPCREL(%rip), %rsi
.LEHB321:
	call	system__finalization_primitives__attach_object_to_node@PLT
.LVL628:
.LEHE321:
.LEHB322:
	.loc 8 48 17 discriminator 9 view .LVU728
	call	*system__soft_links__abort_defer(%rip)
.LVL629:
.LEHE322:
.LBB629:
	.loc 8 48 13 discriminator 13 view .LVU729
	leaq	1136(%rsp), %rdi
	movl	$1, %esi
.LEHB323:
	call	spatial__positionDF@PLT
.LVL630:
	.loc 8 48 17 discriminator 16 view .LVU730
	movdqa	80(%rsp), %xmm1
	movaps	%xmm1, 1136(%rsp)
	movdqa	96(%rsp), %xmm2
	movaps	%xmm2, 1152(%rsp)
	movdqa	112(%rsp), %xmm3
	movaps	%xmm3, 1168(%rsp)
	movdqa	128(%rsp), %xmm4
	movaps	%xmm4, 1184(%rsp)
	.loc 8 48 13 discriminator 17 view .LVU731
	leaq	1136(%rsp), %rdi
	movl	$1, %esi
	call	spatial__positionDA@PLT
.LVL631:
.LEHE323:
.LEHB324:
.LBE629:
	.loc 8 48 0 discriminator 19 view .LVU732
	call	system__standard_library__abort_undefer_direct@PLT
.LVL632:
.LEHE324:
	.loc 8 48 0 is_stmt 0 view .LVU733
	leaq	144(%rsp), %r10
.LEHB325:
	call	main__disp__capture__L_1__B1467b___finalizer.66
.LVL633:
.LEHE325:
	.loc 8 48 0 view .LVU734
.LBE628:
.LBB631:
	.loc 8 49 17 is_stmt 1 view .LVU735
	movb	$1, 176(%rsp)
	movb	$0, 177(%rsp)
	movb	$0, 178(%rsp)
	movq	$0, 184(%rsp)
.LVL634:
	.loc 8 49 47 discriminator 3 view .LVU736
	movq	$0, 1264(%rsp)
	movq	$0, 1272(%rsp)
	movq	$0, 1280(%rsp)
.LVL635:
	.loc 8 49 47 is_stmt 0 discriminator 6 view .LVU737
	leaq	16(%rsp), %rdi
	movl	%ebp, %edx
	movq	%r13, %rsi
.LEHB326:
	call	main__univ__get_velocity.49
.LVL636:
	.loc 8 49 47 discriminator 9 view .LVU738
	leaq	176(%rsp), %rcx
	leaq	1264(%rsp), %rdx
	leaq	16(%rsp), %rdi
	movq	spatial__velocityFD@GOTPCREL(%rip), %rsi
	call	system__finalization_primitives__attach_object_to_master@PLT
.LVL637:
	.loc 8 49 27 is_stmt 1 discriminator 12 view .LVU739
	movq	$0, 1296(%rsp)
	movq	$0, 1304(%rsp)
	movq	$0, 1312(%rsp)
.LVL638:
.LBB632:
.LBB633:
	.loc 6 46 13 view .LVU740
	movdqa	16(%rsp), %xmm5
	movaps	%xmm5, 80(%rsp)
	movdqa	32(%rsp), %xmm6
	movaps	%xmm6, 96(%rsp)
	movdqa	48(%rsp), %xmm7
	movaps	%xmm7, 112(%rsp)
	movdqa	64(%rsp), %xmm1
	movaps	%xmm1, 128(%rsp)
	leaq	80(%rsp), %rdi
	movl	$1, %esi
	call	vector__vectorDA@PLT
.LVL639:
	.loc 6 46 13 is_stmt 0 view .LVU741
.LBE633:
.LBE632:
	.loc 8 49 27 is_stmt 1 discriminator 18 view .LVU742
	leaq	176(%rsp), %rcx
	leaq	1296(%rsp), %rdx
	leaq	80(%rsp), %rdi
	movq	vector__vectorFD@GOTPCREL(%rip), %rsi
	call	system__finalization_primitives__attach_object_to_master@PLT
.LVL640:
.LEHE326:
.LEHB327:
	.loc 8 49 17 discriminator 21 view .LVU743
	call	*system__soft_links__abort_defer(%rip)
.LVL641:
.LEHE327:
.LBB634:
	.loc 8 49 13 discriminator 25 view .LVU744
	leaq	1072(%rsp), %rdi
	movl	$1, %esi
.LEHB328:
	call	vector__vectorDF@PLT
.LVL642:
	.loc 8 49 17 discriminator 28 view .LVU745
	movdqa	80(%rsp), %xmm2
	movaps	%xmm2, 1072(%rsp)
	movdqa	96(%rsp), %xmm3
	movaps	%xmm3, 1088(%rsp)
	movdqa	112(%rsp), %xmm4
	movaps	%xmm4, 1104(%rsp)
	movdqa	128(%rsp), %xmm5
	movaps	%xmm5, 1120(%rsp)
	.loc 8 49 13 discriminator 29 view .LVU746
	leaq	1072(%rsp), %rdi
	movl	$1, %esi
	call	vector__vectorDA@PLT
.LVL643:
.LEHE328:
.LEHB329:
.LBE634:
	.loc 8 49 0 discriminator 31 view .LVU747
	call	system__standard_library__abort_undefer_direct@PLT
.LVL644:
.LEHE329:
	.loc 8 49 0 is_stmt 0 view .LVU748
	leaq	144(%rsp), %r10
.LEHB330:
	call	main__disp__capture__L_1__B1479b___finalizer.67
.LVL645:
.LEHE330:
.LBE631:
	.loc 8 50 32 is_stmt 1 discriminator 2 view .LVU749
	cmpl	$2147483647, %r12d
	je	.L757
	.loc 8 50 32 is_stmt 0 discriminator 5 view .LVU750
	leal	1(%r12), %ebx
	.loc 8 50 21 is_stmt 1 discriminator 8 view .LVU751
	movl	%ebx, 1064(%rsp)
	.loc 8 51 14 view .LVU752
	cmpl	$9, %r12d
	ja	.L758
.LVL646:
.LBB636:
	.loc 8 51 32 discriminator 2 view .LVU753
	movb	$1, 160(%rsp)
	movb	$0, 161(%rsp)
	movb	$0, 162(%rsp)
	movq	$0, 168(%rsp)
.LVL647:
	.loc 8 52 38 view .LVU754
	movq	$0, 1328(%rsp)
	movq	$0, 1336(%rsp)
	movq	$0, 1344(%rsp)
.LVL648:
.LBB637:
.LBB638:
	.loc 6 31 24 view .LVU755
	movdqa	1136(%rsp), %xmm6
	movaps	%xmm6, 16(%rsp)
	movdqa	1152(%rsp), %xmm7
	movaps	%xmm7, 32(%rsp)
	leaq	16(%rsp), %rdi
	movl	$1, %esi
.LEHB331:
	call	ada__numerics__big_numbers__big_reals__big_realDA@PLT
.LVL649:
.LEHE331:
	jmp	.L759
.LVL650:
.L757:
	.loc 6 31 24 is_stmt 0 view .LVU756
.LBE638:
.LBE637:
.LBE636:
	.loc 8 50 32 is_stmt 1 discriminator 4 view .LVU757
	movl	$50, %esi
	leaq	.LC71(%rip), %rdi
.LEHB332:
	call	__gnat_rcheck_CE_Overflow_Check@PLT
.LVL651:
.L758:
	.loc 8 51 14 discriminator 1 view .LVU758
	movl	$51, %esi
	leaq	.LC71(%rip), %rdi
	call	__gnat_rcheck_CE_Index_Check@PLT
.LVL652:
.LEHE332:
.L759:
.LBB641:
	.loc 8 52 38 discriminator 4 view .LVU759
	leaq	160(%rsp), %rcx
	leaq	1328(%rsp), %rdx
	leaq	16(%rsp), %rdi
	movq	ada__numerics__big_numbers__big_reals__big_realFD@GOTPCREL(%rip), %rsi
.LEHB333:
	call	system__finalization_primitives__attach_object_to_master@PLT
.LVL653:
	.loc 8 53 38 view .LVU760
	movq	$0, 1360(%rsp)
	movq	$0, 1368(%rsp)
	movq	$0, 1376(%rsp)
.LVL654:
.LBB639:
.LBB640:
	.loc 6 34 24 view .LVU761
	movdqa	1168(%rsp), %xmm1
	movaps	%xmm1, 80(%rsp)
	movdqa	1184(%rsp), %xmm2
	movaps	%xmm2, 96(%rsp)
	leaq	80(%rsp), %rdi
	movl	$1, %esi
	call	ada__numerics__big_numbers__big_reals__big_realDA@PLT
.LVL655:
	.loc 6 34 24 is_stmt 0 view .LVU762
.LBE640:
.LBE639:
	.loc 8 53 38 is_stmt 1 discriminator 4 view .LVU763
	leaq	160(%rsp), %rcx
	leaq	1360(%rsp), %rdx
	leaq	80(%rsp), %rdi
	movq	ada__numerics__big_numbers__big_reals__big_realFD@GOTPCREL(%rip), %rsi
	call	system__finalization_primitives__attach_object_to_master@PLT
.LVL656:
	.loc 8 55 35 view .LVU764
	movq	$0, 1392(%rsp)
	movq	$0, 1400(%rsp)
	movq	$0, 1408(%rsp)
.LVL657:
	.loc 8 55 35 is_stmt 0 discriminator 2 view .LVU765
	leaq	224(%rsp), %rdi
	movl	%ebp, %edx
	movq	%r13, %rsi
	call	main__univ__get_radius.36
.LVL658:
	.loc 8 55 35 discriminator 4 view .LVU766
	leaq	160(%rsp), %rcx
	leaq	1392(%rsp), %rdx
	leaq	224(%rsp), %rdi
	movq	ada__numerics__big_numbers__big_reals__big_realFD@GOTPCREL(%rip), %rsi
	call	system__finalization_primitives__attach_object_to_master@PLT
.LVL659:
	.loc 8 51 32 is_stmt 1 view .LVU767
	movslq	%ebx, %rbx
	.loc 8 52 21 view .LVU768
	leaq	16(%rsp), %rdi
	call	main__disp__to_float.64
.LVL660:
	movd	%xmm0, %r12d
	.loc 8 53 21 view .LVU769
	leaq	80(%rsp), %rdi
	call	main__disp__to_float.64
.LVL661:
	movss	%xmm0, 4(%rsp)
	.loc 8 55 21 view .LVU770
	leaq	224(%rsp), %rdi
	call	main__disp__to_float.64
.LVL662:
	movss	%xmm0, 8(%rsp)
	.loc 8 54 22 view .LVU771
	leaq	1072(%rsp), %rdi
	call	main__disp__to_float.64
.LVL663:
	movss	%xmm0, 12(%rsp)
	.loc 8 54 46 discriminator 2 view .LVU772
	leaq	1104(%rsp), %rdi
	call	main__disp__to_float.64
.LVL664:
	.loc 8 51 32 discriminator 6 view .LVU773
	leaq	-5(%rbx,%rbx,4), %rax
	movl	%r12d, 864(%rsp,%rax,4)
	.loc 8 51 32 is_stmt 0 discriminator 7 view .LVU774
	movss	4(%rsp), %xmm3
	movss	%xmm3, 868(%rsp,%rax,4)
	.loc 8 51 32 discriminator 9 view .LVU775
	movss	8(%rsp), %xmm4
	movss	%xmm4, 872(%rsp,%rax,4)
	.loc 8 51 32 discriminator 11 view .LVU776
	movss	12(%rsp), %xmm5
	movss	%xmm5, 876(%rsp,%rax,4)
	.loc 8 51 32 discriminator 13 view .LVU777
	leaq	(%rbx,%rbx,4), %rax
	movss	%xmm0, 860(%rsp,%rax,4)
.LEHE333:
	.loc 8 51 0 is_stmt 1 discriminator 15 view .LVU778
	leaq	144(%rsp), %r10
.LEHB334:
	call	main__disp__capture__L_1__B1499b___finalizer.68
.LVL665:
.LEHE334:
.L711:
	.loc 8 51 0 is_stmt 0 discriminator 15 view .LVU779
.LBE641:
.LBE627:
	.loc 8 46 11 is_stmt 1 view .LVU780
	cmpl	%r14d, %ebp
	je	.L709
	.loc 8 46 11 is_stmt 0 discriminator 4 view .LVU781
	addl	$1, %ebp
.LVL666:
.L714:
.LBB646:
	.loc 8 47 14 is_stmt 1 view .LVU782
	movl	1064(%rsp), %r12d
	testl	%r12d, %r12d
	js	.L760
	.loc 8 47 10 discriminator 2 view .LVU783
	cmpl	$9, %r12d
	jg	.L711
.LVL667:
.LBB642:
	.loc 8 48 17 view .LVU784
	movq	$0, 192(%rsp)
	movq	$0, 200(%rsp)
	movq	$0, 208(%rsp)
.LVL668:
	.loc 8 48 24 discriminator 3 view .LVU785
	leaq	80(%rsp), %rdi
	movl	%ebp, %edx
	movq	%r13, %rsi
.LEHB335:
	call	main__univ__get_position.47
.LVL669:
.LEHE335:
	jmp	.L761
.LVL670:
.L709:
	.loc 8 48 24 is_stmt 0 discriminator 3 view .LVU786
.LBE642:
.LBE646:
.LBE649:
	.loc 8 59 34 is_stmt 1 view .LVU787
	movl	1124176(%r15), %eax
	cmpl	$2147483647, %eax
	je	.L762
	.loc 8 59 19 discriminator 2 view .LVU788
	addl	$1, %eax
	movl	%eax, 1124176(%r15)
	.loc 8 60 15 view .LVU789
	js	.L763
	.loc 8 60 7 discriminator 2 view .LVU790
	leal	-1(%rax), %edx
	cmpl	$5499, %edx
	ja	.L764
	.loc 8 60 28 discriminator 8 view .LVU791
	cltq
	imulq	$204, %rax, %rax
	addq	%rax, %r15
	leaq	1972(%r15), %rax
	movdqa	864(%rsp), %xmm6
.LEHB336:
	movups	%xmm6, 1972(%r15)
	jmp	.L765
.L762:
	.loc 8 59 19 discriminator 1 view .LVU792
	movl	$59, %esi
	leaq	.LC71(%rip), %rdi
	call	__gnat_rcheck_CE_Overflow_Check@PLT
.LVL671:
.L763:
	.loc 8 60 15 discriminator 1 view .LVU793
	movl	$60, %esi
	leaq	.LC71(%rip), %rdi
	call	__gnat_rcheck_CE_Invalid_Data@PLT
.LVL672:
.L764:
	.loc 8 60 7 discriminator 4 view .LVU794
	movl	$60, %esi
	leaq	.LC71(%rip), %rdi
	call	__gnat_rcheck_CE_Index_Check@PLT
.LVL673:
.L765:
	.loc 8 60 28 discriminator 8 view .LVU795
	movdqa	880(%rsp), %xmm7
	movups	%xmm7, 16(%rax)
	movdqa	896(%rsp), %xmm6
	movups	%xmm6, 32(%rax)
	movdqa	912(%rsp), %xmm7
	movups	%xmm7, 48(%rax)
	movdqa	928(%rsp), %xmm6
	movups	%xmm6, 64(%rax)
	movdqa	944(%rsp), %xmm7
	movups	%xmm7, 80(%rax)
	movdqa	960(%rsp), %xmm6
	movups	%xmm6, 96(%rax)
	movdqa	976(%rsp), %xmm7
	movups	%xmm7, 112(%rax)
	movdqa	992(%rsp), %xmm6
	movups	%xmm6, 128(%rax)
	movdqa	1008(%rsp), %xmm7
	movups	%xmm7, 144(%rax)
	movdqa	1024(%rsp), %xmm6
	movups	%xmm6, 160(%rax)
	movdqa	1040(%rsp), %xmm7
	movups	%xmm7, 176(%rax)
	movdqu	1052(%rsp), %xmm6
	movups	%xmm6, 188(%rax)
	jmp	.L707
.LVL674:
.L740:
	.loc 8 36 7 discriminator 13 view .LVU796
	movq	%rax, %rbp
	cmpq	$1, %rdx
	je	.L719
	movq	%rax, %rbx
.L720:
	.loc 8 36 0 discriminator 26 view .LVU797
	call	system__standard_library__abort_undefer_direct@PLT
.LVL675:
.LEHE336:
	jmp	.L722
.L719:
.LVL676:
.LBB650:
	.loc 8 36 7 discriminator 17 view .LVU798
	movq	%rax, %rdi
	call	__gnat_begin_handler_v1@PLT
.LVL677:
	.loc 8 36 7 is_stmt 0 discriminator 17 view .LVU799
	movq	%rax, %r12
.LVL678:
	.loc 8 36 7 discriminator 18 view .LVU800
	leaq	1136(%rsp), %rdi
	movl	$0, %esi
.LEHB337:
	call	spatial__positionDF@PLT
.LVL679:
	.loc 8 36 7 discriminator 21 view .LVU801
	movq	%rbp, %rdi
	call	__gnat_reraise_zcx@PLT
.LVL680:
.LEHE337:
.L741:
	.loc 8 36 7 discriminator 23 view .LVU802
	movq	%rax, %rbx
.LVL681:
	.loc 8 36 7 discriminator 24 view .LVU803
	movq	%rax, %rdx
	movq	%r12, %rsi
	movq	%rbp, %rdi
.LEHB338:
	call	__gnat_end_handler_v1@PLT
.LVL682:
.LEHE338:
	.loc 8 36 7 discriminator 24 view .LVU804
	jmp	.L720
.LVL683:
.L739:
	.loc 8 36 7 discriminator 24 view .LVU805
.LBE650:
	.loc 8 36 0 is_stmt 1 discriminator 26 view .LVU806
	movq	%rax, %rbx
	jmp	.L720
.L743:
	.loc 8 37 7 discriminator 13 view .LVU807
	movq	%rax, %rbp
	cmpq	$2, %rdx
	je	.L724
	movq	%rax, %rbx
.L725:
.LEHB339:
	.loc 8 37 0 discriminator 26 view .LVU808
	call	system__standard_library__abort_undefer_direct@PLT
.LVL684:
.LEHE339:
	jmp	.L722
.L724:
.LVL685:
.LBB651:
	.loc 8 37 7 discriminator 17 view .LVU809
	movq	%rax, %rdi
	call	__gnat_begin_handler_v1@PLT
.LVL686:
	.loc 8 37 7 is_stmt 0 discriminator 17 view .LVU810
	movq	%rax, %r12
.LVL687:
	.loc 8 37 7 discriminator 18 view .LVU811
	leaq	1072(%rsp), %rdi
	movl	$0, %esi
.LEHB340:
	call	vector__vectorDF@PLT
.LVL688:
	.loc 8 37 7 discriminator 21 view .LVU812
	movq	%rbp, %rdi
	call	__gnat_reraise_zcx@PLT
.LVL689:
.LEHE340:
.L744:
	.loc 8 37 7 discriminator 23 view .LVU813
	movq	%rax, %rbx
.LVL690:
	.loc 8 37 7 discriminator 24 view .LVU814
	movq	%rax, %rdx
	movq	%r12, %rsi
	movq	%rbp, %rdi
.LEHB341:
	call	__gnat_end_handler_v1@PLT
.LVL691:
.LEHE341:
	.loc 8 37 7 discriminator 24 view .LVU815
	jmp	.L725
.LVL692:
.L742:
	.loc 8 37 7 discriminator 24 view .LVU816
.LBE651:
	.loc 8 37 0 is_stmt 1 discriminator 26 view .LVU817
	movq	%rax, %rbx
	jmp	.L725
.LVL693:
.L747:
	.loc 8 37 0 is_stmt 0 discriminator 26 view .LVU818
	movq	%rax, %rbp
.LVL694:
	.loc 8 37 0 discriminator 26 view .LVU819
	cmpq	$3, %rdx
	je	.L728
	movq	%rax, %rbx
.L729:
.LEHB342:
.LBB652:
.LBB647:
.LBB643:
	.loc 8 48 0 is_stmt 1 discriminator 11 view .LVU820
	call	system__standard_library__abort_undefer_direct@PLT
.LVL695:
.LEHE342:
	jmp	.L731
.L728:
.LVL696:
	.loc 8 48 0 is_stmt 0 discriminator 11 view .LVU821
	movq	%rax, %rdi
	call	__gnat_begin_handler_v1@PLT
.LVL697:
	.loc 8 48 0 discriminator 11 view .LVU822
	movq	%rax, %r12
.LVL698:
	.loc 8 48 0 discriminator 11 view .LVU823
	leaq	224(%rsp), %rdi
	movq	%rbp, %rsi
.LEHB343:
	call	__gnat_set_exception_parameter@PLT
.LVL699:
.LBB630:
	.loc 8 48 17 is_stmt 1 view .LVU824
	leaq	224(%rsp), %rdi
	call	__gnat_raise_from_controlled_operation@PLT
.LVL700:
.LEHE343:
.L748:
	.loc 8 48 17 is_stmt 0 view .LVU825
	movq	%rax, %rbx
.LVL701:
	.loc 8 48 17 view .LVU826
	movq	%rax, %rdx
	movq	%r12, %rsi
	movq	%rbp, %rdi
.LEHB344:
	call	__gnat_end_handler_v1@PLT
.LVL702:
.LEHE344:
	.loc 8 48 17 view .LVU827
	jmp	.L729
.LVL703:
.L746:
	.loc 8 48 17 view .LVU828
.LBE630:
	.loc 8 48 0 is_stmt 1 discriminator 11 view .LVU829
	movq	%rax, %rbx
	jmp	.L729
.L745:
	.loc 8 48 0 is_stmt 0 discriminator 26 view .LVU830
	movq	%rax, %rbx
.L731:
	leaq	144(%rsp), %r10
.LEHB345:
	call	main__disp__capture__L_1__B1467b___finalizer.66
.LVL704:
.LEHE345:
	jmp	.L722
.LVL705:
.L751:
	.loc 8 48 0 discriminator 26 view .LVU831
	movq	%rax, %rbp
.LVL706:
	.loc 8 48 0 discriminator 26 view .LVU832
	cmpq	$4, %rdx
	je	.L733
	movq	%rax, %rbx
.L734:
.LEHB346:
.LBE643:
.LBB644:
	.loc 8 49 0 is_stmt 1 discriminator 23 view .LVU833
	call	system__standard_library__abort_undefer_direct@PLT
.LVL707:
.LEHE346:
	jmp	.L736
.L733:
.LVL708:
	.loc 8 49 0 is_stmt 0 discriminator 23 view .LVU834
	movq	%rax, %rdi
	call	__gnat_begin_handler_v1@PLT
.LVL709:
	.loc 8 49 0 discriminator 23 view .LVU835
	movq	%rax, %r12
.LVL710:
	.loc 8 49 0 discriminator 23 view .LVU836
	leaq	224(%rsp), %rdi
	movq	%rbp, %rsi
.LEHB347:
	call	__gnat_set_exception_parameter@PLT
.LVL711:
.LBB635:
	.loc 8 49 17 is_stmt 1 view .LVU837
	leaq	224(%rsp), %rdi
	call	__gnat_raise_from_controlled_operation@PLT
.LVL712:
.LEHE347:
.L752:
	.loc 8 49 17 is_stmt 0 view .LVU838
	movq	%rax, %rbx
.LVL713:
	.loc 8 49 17 view .LVU839
	movq	%rax, %rdx
	movq	%r12, %rsi
	movq	%rbp, %rdi
.LEHB348:
	call	__gnat_end_handler_v1@PLT
.LVL714:
.LEHE348:
	.loc 8 49 17 view .LVU840
	jmp	.L734
.LVL715:
.L750:
	.loc 8 49 17 view .LVU841
.LBE635:
	.loc 8 49 0 is_stmt 1 discriminator 23 view .LVU842
	movq	%rax, %rbx
	jmp	.L734
.L749:
	.loc 8 49 0 is_stmt 0 discriminator 38 view .LVU843
	movq	%rax, %rbx
.L736:
	leaq	144(%rsp), %r10
.LEHB349:
	call	main__disp__capture__L_1__B1479b___finalizer.67
.LVL716:
	jmp	.L722
.LVL717:
.L753:
	.loc 8 49 0 discriminator 38 view .LVU844
.LBE644:
.LBB645:
	.loc 8 51 0 is_stmt 1 discriminator 14 view .LVU845
	movq	%rax, %rbx
	leaq	144(%rsp), %r10
	call	main__disp__capture__L_1__B1499b___finalizer.68
.LVL718:
.LEHE349:
	jmp	.L722
.LVL719:
.L707:
	.loc 8 51 0 is_stmt 0 discriminator 14 view .LVU846
.LBE645:
.LBE647:
.LBE652:
	.loc 8 61 0 is_stmt 1 view .LVU847
	leaq	144(%rsp), %r10
.LEHB350:
	call	main__disp__capture___finalizer.69
.LVL720:
	.loc 8 61 8 view .LVU848
	addq	$1432, %rsp
	.cfi_def_cfa_offset 56
.LEHE350:
	popq	%rbx
	.cfi_def_cfa_offset 48
	popq	%rbp
	.cfi_def_cfa_offset 40
	popq	%r12
	.cfi_def_cfa_offset 32
	popq	%r13
	.cfi_def_cfa_offset 24
.LVL721:
	.loc 8 61 8 is_stmt 0 view .LVU849
	popq	%r14
	.cfi_def_cfa_offset 16
	popq	%r15
	.cfi_def_cfa_offset 8
	ret
	.cfi_endproc
.LFE49:
	.section	.gcc_except_table.main__disp__capture.62,"a",@progbits
	.align 4
.LLSDA49:
	.byte	0xff
	.byte	0x9b
	.uleb128 .LLSDATT49-.LLSDATTD49
.LLSDATTD49:
	.byte	0x1
	.uleb128 .LLSDACSE49-.LLSDACSB49
.LLSDACSB49:
	.uleb128 .LEHB312-.LFB49
	.uleb128 .LEHE312-.LEHB312
	.uleb128 0
	.uleb128 0
	.uleb128 .LEHB313-.LFB49
	.uleb128 .LEHE313-.LEHB313
	.uleb128 .L739-.LFB49
	.uleb128 0
	.uleb128 .LEHB314-.LFB49
	.uleb128 .LEHE314-.LEHB314
	.uleb128 .L740-.LFB49
	.uleb128 0x3
	.uleb128 .LEHB315-.LFB49
	.uleb128 .LEHE315-.LEHB315
	.uleb128 .L738-.LFB49
	.uleb128 0
	.uleb128 .LEHB316-.LFB49
	.uleb128 .LEHE316-.LEHB316
	.uleb128 .L742-.LFB49
	.uleb128 0
	.uleb128 .LEHB317-.LFB49
	.uleb128 .LEHE317-.LEHB317
	.uleb128 .L743-.LFB49
	.uleb128 0x5
	.uleb128 .LEHB318-.LFB49
	.uleb128 .LEHE318-.LEHB318
	.uleb128 .L738-.LFB49
	.uleb128 0
	.uleb128 .LEHB319-.LFB49
	.uleb128 .LEHE319-.LEHB319
	.uleb128 0
	.uleb128 0
	.uleb128 .LEHB320-.LFB49
	.uleb128 .LEHE320-.LEHB320
	.uleb128 .L738-.LFB49
	.uleb128 0
	.uleb128 .LEHB321-.LFB49
	.uleb128 .LEHE321-.LEHB321
	.uleb128 .L745-.LFB49
	.uleb128 0
	.uleb128 .LEHB322-.LFB49
	.uleb128 .LEHE322-.LEHB322
	.uleb128 .L746-.LFB49
	.uleb128 0
	.uleb128 .LEHB323-.LFB49
	.uleb128 .LEHE323-.LEHB323
	.uleb128 .L747-.LFB49
	.uleb128 0x7
	.uleb128 .LEHB324-.LFB49
	.uleb128 .LEHE324-.LEHB324
	.uleb128 .L745-.LFB49
	.uleb128 0
	.uleb128 .LEHB325-.LFB49
	.uleb128 .LEHE325-.LEHB325
	.uleb128 .L738-.LFB49
	.uleb128 0
	.uleb128 .LEHB326-.LFB49
	.uleb128 .LEHE326-.LEHB326
	.uleb128 .L749-.LFB49
	.uleb128 0
	.uleb128 .LEHB327-.LFB49
	.uleb128 .LEHE327-.LEHB327
	.uleb128 .L750-.LFB49
	.uleb128 0
	.uleb128 .LEHB328-.LFB49
	.uleb128 .LEHE328-.LEHB328
	.uleb128 .L751-.LFB49
	.uleb128 0x9
	.uleb128 .LEHB329-.LFB49
	.uleb128 .LEHE329-.LEHB329
	.uleb128 .L749-.LFB49
	.uleb128 0
	.uleb128 .LEHB330-.LFB49
	.uleb128 .LEHE330-.LEHB330
	.uleb128 .L738-.LFB49
	.uleb128 0
	.uleb128 .LEHB331-.LFB49
	.uleb128 .LEHE331-.LEHB331
	.uleb128 .L753-.LFB49
	.uleb128 0
	.uleb128 .LEHB332-.LFB49
	.uleb128 .LEHE332-.LEHB332
	.uleb128 .L738-.LFB49
	.uleb128 0
	.uleb128 .LEHB333-.LFB49
	.uleb128 .LEHE333-.LEHB333
	.uleb128 .L753-.LFB49
	.uleb128 0
	.uleb128 .LEHB334-.LFB49
	.uleb128 .LEHE334-.LEHB334
	.uleb128 .L738-.LFB49
	.uleb128 0
	.uleb128 .LEHB335-.LFB49
	.uleb128 .LEHE335-.LEHB335
	.uleb128 .L745-.LFB49
	.uleb128 0
	.uleb128 .LEHB336-.LFB49
	.uleb128 .LEHE336-.LEHB336
	.uleb128 .L738-.LFB49
	.uleb128 0
	.uleb128 .LEHB337-.LFB49
	.uleb128 .LEHE337-.LEHB337
	.uleb128 .L741-.LFB49
	.uleb128 0
	.uleb128 .LEHB338-.LFB49
	.uleb128 .LEHE338-.LEHB338
	.uleb128 .L739-.LFB49
	.uleb128 0
	.uleb128 .LEHB339-.LFB49
	.uleb128 .LEHE339-.LEHB339
	.uleb128 .L738-.LFB49
	.uleb128 0
	.uleb128 .LEHB340-.LFB49
	.uleb128 .LEHE340-.LEHB340
	.uleb128 .L744-.LFB49
	.uleb128 0
	.uleb128 .LEHB341-.LFB49
	.uleb128 .LEHE341-.LEHB341
	.uleb128 .L742-.LFB49
	.uleb128 0
	.uleb128 .LEHB342-.LFB49
	.uleb128 .LEHE342-.LEHB342
	.uleb128 .L745-.LFB49
	.uleb128 0
	.uleb128 .LEHB343-.LFB49
	.uleb128 .LEHE343-.LEHB343
	.uleb128 .L748-.LFB49
	.uleb128 0
	.uleb128 .LEHB344-.LFB49
	.uleb128 .LEHE344-.LEHB344
	.uleb128 .L746-.LFB49
	.uleb128 0
	.uleb128 .LEHB345-.LFB49
	.uleb128 .LEHE345-.LEHB345
	.uleb128 .L738-.LFB49
	.uleb128 0
	.uleb128 .LEHB346-.LFB49
	.uleb128 .LEHE346-.LEHB346
	.uleb128 .L749-.LFB49
	.uleb128 0
	.uleb128 .LEHB347-.LFB49
	.uleb128 .LEHE347-.LEHB347
	.uleb128 .L752-.LFB49
	.uleb128 0
	.uleb128 .LEHB348-.LFB49
	.uleb128 .LEHE348-.LEHB348
	.uleb128 .L750-.LFB49
	.uleb128 0
	.uleb128 .LEHB349-.LFB49
	.uleb128 .LEHE349-.LEHB349
	.uleb128 .L738-.LFB49
	.uleb128 0
	.uleb128 .LEHB350-.LFB49
	.uleb128 .LEHE350-.LEHB350
	.uleb128 0
	.uleb128 0
.LLSDACSE49:
	.byte	0
	.byte	0
	.byte	0x1
	.byte	0x7d
	.byte	0x2
	.byte	0x7b
	.byte	0x3
	.byte	0x79
	.byte	0x4
	.byte	0x77
	.align 4
	.long	DW.ref.__gnat_others_value-.
	.long	DW.ref.__gnat_others_value-.
	.long	DW.ref.__gnat_others_value-.
	.long	DW.ref.__gnat_others_value-.
.LLSDATT49:
	.section	.text.main__disp__capture.62
	.size	main__disp__capture.62, .-main__disp__capture.62
	.section	.text.main__disp__put_float.71,"ax",@progbits
	.align 2
	.type	main__disp__put_float.71, @function
main__disp__put_float.71:
.LVL722:
.LFB54:
	.loc 8 63 4 is_stmt 1 view -0
	.cfi_startproc
	.loc 8 63 4 is_stmt 0 view .LVU851
	pushq	%rbx
	.cfi_def_cfa_offset 16
	.cfi_offset 3, -16
	subq	$16, %rsp
	.cfi_def_cfa_offset 32
	movq	%rdi, %rbx
	movss	%xmm0, 12(%rsp)
	.loc 8 65 36 is_stmt 1 view .LVU852
	leaq	12(%rsp), %rdi
.LVL723:
	.loc 8 65 36 is_stmt 0 view .LVU853
	movl	$0, %esi
	call	system__fat_flt__attr_float__valid@PLT
.LVL724:
	.loc 8 65 36 discriminator 1 view .LVU854
	testb	%al, %al
	je	.L769
	.loc 8 65 24 is_stmt 1 discriminator 3 view .LVU855
	movl	$0, %ecx
	movl	$4, %edx
	movl	$1, %esi
	movss	12(%rsp), %xmm0
	movq	%rbx, %rdi
	call	ada__float_text_io__put@PLT
.LVL725:
	.loc 8 66 8 view .LVU856
	addq	$16, %rsp
	.cfi_remember_state
	.cfi_def_cfa_offset 16
	popq	%rbx
	.cfi_def_cfa_offset 8
.LVL726:
	.loc 8 66 8 is_stmt 0 view .LVU857
	ret
.LVL727:
.L769:
	.cfi_restore_state
	.loc 8 65 36 is_stmt 1 discriminator 2 view .LVU858
	movl	$65, %esi
	leaq	.LC71(%rip), %rdi
	call	__gnat_rcheck_CE_Invalid_Data@PLT
.LVL728:
	.cfi_endproc
.LFE54:
	.size	main__disp__put_float.71, .-main__disp__put_float.71
	.section	.rodata
.LC81:
	.section	.rodata.main__disp__save.70.str1.1,"aMS",@progbits,1
.LC82:
	.string	"<!DOCTYPE html>"
.LC83:
	.string	"<html><head>"
.LC84:
	.string	"<meta charset=\"utf-8\">"
	.section	.rodata.main__disp__save.70.str1.8,"aMS",@progbits,1
	.align 8
.LC85:
	.string	"<title>Universe Simulation</title>"
	.section	.rodata.main__disp__save.70.str1.1
.LC86:
	.string	"<style>"
	.section	.rodata.main__disp__save.70.str1.8
	.align 8
.LC87:
	.string	"body{margin:0;background:#111;display:flex;flex-direction:column;align-items:center;font-family:monospace;color:#eee;}"
	.align 8
.LC88:
	.string	"canvas{border:1px solid #444;cursor:grab;margin-top:10px;}"
	.align 8
.LC89:
	.string	"canvas:active{cursor:grabbing;}"
	.align 8
.LC90:
	.string	"#controls{margin:10px;user-select:none;}"
	.align 8
.LC91:
	.string	"button{margin:0 3px;padding:5px 12px;background:#333;color:#eee;border:1px solid #555;cursor:pointer;font-family:monospace;}"
	.section	.rodata.main__disp__save.70.str1.1
.LC92:
	.string	"button:hover{background:#555;}"
.LC93:
	.string	"#info{margin-left:10px;}"
.LC94:
	.string	"</style>"
.LC95:
	.string	"</head><body>"
	.section	.rodata.main__disp__save.70.str1.8
	.align 8
.LC96:
	.string	"<canvas id=\"c\" width=\"1200\" height=\"600\"></canvas>"
	.section	.rodata.main__disp__save.70.str1.1
.LC97:
	.string	"<div id=\"controls\">"
	.section	.rodata.main__disp__save.70.str1.8
	.align 8
.LC98:
	.string	"<button onclick=\"stepBack()\">&lt; Prev</button>"
	.align 8
.LC99:
	.string	"<button onclick=\"togglePlay()\" id=\"playBtn\">Play</button>"
	.align 8
.LC100:
	.string	"<button onclick=\"stepFwd()\">Next &gt;</button>"
	.align 8
.LC101:
	.string	"<button onclick=\"resetView()\">Reset View</button>"
	.align 8
.LC102:
	.string	"<button onclick=\"fitAll()\">Fit All</button>"
	.align 8
.LC103:
	.string	"<span id=\"info\">Frame: 1</span>"
	.section	.rodata.main__disp__save.70.str1.1
.LC104:
	.string	"</div>"
	.section	.rodata.main__disp__save.70.str1.8
	.align 8
.LC105:
	.string	"<div style=\"margin:5px;width:1200px;\">"
	.align 8
.LC106:
	.string	"<input type=\"range\" id=\"slider\" min=\"0\" value=\"0\" style=\"width:100%;\"/>"
	.section	.rodata.main__disp__save.70.str1.1
.LC107:
	.string	"<script>"
.LC108:
	.string	"const frames=["
.LC109:
	.string	","
.LC110:
	.string	"["
.LC111:
	.string	"]"
.LC112:
	.string	"];"
	.section	.rodata.main__disp__save.70.str1.8
	.align 8
.LC113:
	.string	"const canvas=document.getElementById('c');"
	.align 8
.LC114:
	.string	"const ctx=canvas.getContext('2d');"
	.align 8
.LC115:
	.string	"const info=document.getElementById('info');"
	.align 8
.LC116:
	.string	"const playBtn=document.getElementById('playBtn');"
	.align 8
.LC117:
	.string	"const CW=canvas.width, CH=canvas.height;"
	.align 8
.LC118:
	.string	"const slider=document.getElementById('slider');"
	.section	.rodata.main__disp__save.70.str1.1
.LC119:
	.string	"slider.max=frames.length-1;"
	.section	.rodata.main__disp__save.70.str1.8
	.align 8
.LC120:
	.string	"slider.addEventListener('input',e=>{stopPlay();frame=+e.target.value;draw();});"
	.section	.rodata.main__disp__save.70.str1.1
.LC121:
	.string	"let vp={ox:0,oy:0,w:100,h:50};"
	.section	.rodata.main__disp__save.70.str1.8
	.align 8
.LC122:
	.string	"let frame=0,playing=false,timer=null,interval=20;"
	.section	.rodata.main__disp__save.70.str1.1
.LC123:
	.string	"function bbox(){"
	.section	.rodata.main__disp__save.70.str1.8
	.align 8
.LC124:
	.string	"  let x0=Infinity,y0=Infinity,x1=-Infinity,y1=-Infinity;"
	.align 8
.LC125:
	.string	"  for(const fr of frames)for(const p of fr){"
	.section	.rodata.main__disp__save.70.str1.1
.LC126:
	.string	"    const r=p[2];"
	.section	.rodata.main__disp__save.70.str1.8
	.align 8
.LC127:
	.string	"    if(p[0]-r<x0)x0=p[0]-r;if(p[0]+r>x1)x1=p[0]+r;"
	.align 8
.LC128:
	.string	"    if(p[1]-r<y0)y0=p[1]-r;if(p[1]+r>y1)y1=p[1]+r;"
	.section	.rodata.main__disp__save.70.str1.1
.LC129:
	.string	"  }"
.LC130:
	.string	"  const margin=0.1;"
	.section	.rodata.main__disp__save.70.str1.8
	.align 8
.LC131:
	.string	"  const dx=(x1-x0)*margin||10,dy=(y1-y0)*margin||10;"
	.align 8
.LC132:
	.string	"  return{x0:x0-dx,y0:y0-dy,x1:x1+dx,y1:y1+dy};"
	.section	.rodata.main__disp__save.70.str1.1
.LC133:
	.string	"}"
.LC134:
	.string	"function fitAll(){"
.LC135:
	.string	"  const b=bbox();"
.LC136:
	.string	"  let w=b.x1-b.x0,h=b.y1-b.y0;"
.LC137:
	.string	"  const aspect=CW/CH;"
	.section	.rodata.main__disp__save.70.str1.8
	.align 8
.LC138:
	.string	"  if(w/h<aspect)w=h*aspect;else h=w/aspect;"
	.align 8
.LC139:
	.string	"  const cx=(b.x0+b.x1)/2,cy=(b.y0+b.y1)/2;"
	.align 8
.LC140:
	.string	"  vp.ox=cx-w/2;vp.oy=cy+h/2;vp.w=w;vp.h=h;"
	.section	.rodata.main__disp__save.70.str1.1
.LC141:
	.string	"  draw();"
	.section	.rodata.main__disp__save.70.str1.8
	.align 8
.LC142:
	.string	"function resetView(){fitAll();}"
	.align 8
.LC143:
	.string	"function w2sx(x){return(x-vp.ox)/vp.w*CW;}"
	.align 8
.LC144:
	.string	"function w2sy(y){return(vp.oy-y)/vp.h*CH;}"
	.section	.rodata.main__disp__save.70.str1.1
.LC145:
	.string	"function draw(){"
.LC146:
	.string	"  ctx.fillStyle='#000';"
.LC147:
	.string	"  ctx.fillRect(0,0,CW,CH);"
	.section	.rodata.main__disp__save.70.str1.8
	.align 8
.LC148:
	.string	"  ctx.strokeStyle='#222';ctx.lineWidth=1;"
	.section	.rodata.main__disp__save.70.str1.1
.LC149:
	.string	"  ctx.beginPath();"
	.section	.rodata.main__disp__save.70.str1.8
	.align 8
.LC150:
	.string	"  const gx=Math.pow(10,Math.floor(Math.log10(vp.w))-1)*2;"
	.align 8
.LC151:
	.string	"  const gy=Math.pow(10,Math.floor(Math.log10(vp.h))-1)*2;"
	.align 8
.LC152:
	.string	"  for(let x=Math.floor(vp.ox/gx)*gx;x<vp.ox+vp.w;x+=gx){"
	.align 8
.LC153:
	.string	"    const sx=w2sx(x);ctx.moveTo(sx,0);ctx.lineTo(sx,CH);}"
	.align 8
.LC154:
	.string	"  for(let y=Math.floor((vp.oy-vp.h)/gy)*gy;y<vp.oy;y+=gy){"
	.align 8
.LC155:
	.string	"    const sy=w2sy(y);ctx.moveTo(0,sy);ctx.lineTo(CW,sy);}"
	.section	.rodata.main__disp__save.70.str1.1
.LC156:
	.string	"  ctx.stroke();"
.LC157:
	.string	"  const ax=w2sx(0),ay=w2sy(0);"
	.section	.rodata.main__disp__save.70.str1.8
	.align 8
.LC158:
	.string	"  ctx.strokeStyle='#444';ctx.beginPath();"
	.align 8
.LC159:
	.string	"  ctx.moveTo(ax,0);ctx.lineTo(ax,CH);"
	.align 8
.LC160:
	.string	"  ctx.moveTo(0,ay);ctx.lineTo(CW,ay);"
	.align 8
.LC161:
	.string	"  ctx.strokeStyle='#c44';ctx.lineWidth=2;"
	.section	.rodata.main__disp__save.70.str1.1
.LC162:
	.string	"  const ax0=w2sx("
.LC163:
	.string	"),ay0=w2sy("
.LC164:
	.string	"),ax1=w2sx("
.LC165:
	.string	"),ay1=w2sy("
.LC166:
	.string	");"
	.section	.rodata.main__disp__save.70.str1.8
	.align 8
.LC167:
	.string	"  ctx.rect(ax0,ay0,ax1-ax0,ay1-ay0);"
	.section	.rodata.main__disp__save.70.str1.1
.LC168:
	.string	"  const pts=frames[frame];"
	.section	.rodata.main__disp__save.70.str1.8
	.align 8
.LC169:
	.string	"  for(let i=0;i<pts.length;i++){"
	.align 8
.LC170:
	.string	"    const sx=w2sx(pts[i][0]),sy=w2sy(pts[i][1]);"
	.align 8
.LC171:
	.string	"    const r=Math.max(2,pts[i][2]/vp.w*CW);"
	.align 8
.LC172:
	.string	"    ctx.fillStyle='hsl('+(i*137)%360+',80%,60%)';"
	.align 8
.LC173:
	.string	"    ctx.beginPath();ctx.arc(sx,sy,r,0,Math.PI*2);"
	.section	.rodata.main__disp__save.70.str1.1
.LC174:
	.string	"    ctx.fill();"
	.section	.rodata.main__disp__save.70.str1.8
	.align 8
.LC175:
	.string	"    const vx=pts[i][3],vy=pts[i][4];"
	.align 8
.LC176:
	.string	"    const vlen=Math.sqrt(vx*vx+vy*vy);"
	.section	.rodata.main__disp__save.70.str1.1
.LC177:
	.string	"    if(vlen>0){"
.LC178:
	.string	"      const scale=r*3/vlen;"
	.section	.rodata.main__disp__save.70.str1.8
	.align 8
.LC179:
	.string	"      const ex=sx+vx*scale,ey=sy-vy*scale;"
	.align 8
.LC180:
	.string	"      ctx.strokeStyle='hsl('+(i*137)%360+',80%,80%)';"
